CCS PCH C Compiler, Version 5.015, 5967               02-Apr-26 11:34

               Filename:   D:\intern\code\main.lst

               ROM used:   5454 bytes (6%)
                           Largest free fragment is 60082
               RAM used:   68 (2%) at main() level
                           106 (3%) worst case
               Stack used: 11 locations (6 in main + 5 for interrupts)
               Stack size: 31

*
00000:  GOTO   142C
*
00008:  MOVWF  04
0000A:  MOVFF  FD8,05
0000E:  MOVFF  FE0,06
00012:  MOVLB  0
00014:  MOVFF  FE9,0C
00018:  MOVFF  FEA,07
0001C:  MOVFF  FE1,08
00020:  MOVFF  FE2,09
00024:  MOVFF  FD9,0A
00028:  MOVFF  FDA,0B
0002C:  MOVFF  FF3,12
00030:  MOVFF  FF4,13
00034:  MOVFF  FFA,14
00038:  MOVFF  FFB,15
0003C:  MOVFF  00,0E
00040:  MOVFF  01,0F
00044:  MOVFF  02,10
00048:  MOVFF  03,11
0004C:  BTFSS  FF2.5
0004E:  GOTO   0058
00052:  BTFSC  FF2.2
00054:  GOTO   020A
00058:  BTFSS  F9D.1
0005A:  GOTO   0064
0005E:  BTFSC  F9E.1
00060:  GOTO   00EC
00064:  BTFSS  FF2.3
00066:  GOTO   0070
0006A:  BTFSC  FF2.0
0006C:  GOTO   06B2
00070:  MOVFF  0E,00
00074:  MOVFF  0F,01
00078:  MOVFF  10,02
0007C:  MOVFF  11,03
00080:  MOVFF  0C,FE9
00084:  MOVFF  07,FEA
00088:  BSF    07.7
0008A:  MOVFF  08,FE1
0008E:  MOVFF  09,FE2
00092:  MOVFF  0A,FD9
00096:  MOVFF  0B,FDA
0009A:  MOVFF  12,FF3
0009E:  MOVFF  13,FF4
000A2:  MOVFF  14,FFA
000A6:  MOVFF  15,FFB
000AA:  MOVF   04,W
000AC:  MOVFF  06,FE0
000B0:  MOVFF  05,FD8
000B4:  RETFIE 0
.................... //////////////////////////////////////////////////////////////////////////////// 
.................... // FILE: main.c 
.................... // DESC: Main program - initialization and FSM dispatch loop 
.................... // PROJECT: Line Follower Robot with Ball Pickup/Delivery 
.................... // MCU: PIC18F2685 @ 20MHz 
.................... //////////////////////////////////////////////////////////////////////////////// 
....................  
.................... #include "main.h" 
.................... //////////////////////////////////////////////////////////////////////////////// 
.................... // FILE: main.h 
.................... // DESC: Main header file with standard libraries and global definitions 
.................... //////////////////////////////////////////////////////////////////////////////// 
....................  
.................... #ifndef MAIN_H 
.................... #define MAIN_H 
....................  
.................... // Include hardware configuration first 
.................... #include "config.h" 
.................... //////////////////////////////////////////////////////////////////////////////// 
.................... // FILE: config.h 
.................... // DESC: Hardware configuration, fuses, and pin mapping for line follower robot 
.................... // DEVICE: PIC18F2685 
.................... // FREQ: 20MHz Crystal (HS mode) 
.................... //////////////////////////////////////////////////////////////////////////////// 
....................  
.................... #ifndef CONFIG_H 
.................... #define CONFIG_H 
....................  
.................... #include <18F2685.h> 
.................... //////////// Standard Header file for the PIC18F2685 device //////////////// 
.................... /////////////////////////////////////////////////////////////////////////// 
.................... ////        (C) Copyright 1996, 2013 Custom Computer Services          //// 
.................... //// This source code may only be used by licensed users of the CCS C  //// 
.................... //// compiler.  This source code may only be distributed to other      //// 
.................... //// licensed users of the CCS C compiler.  No other use, reproduction //// 
.................... //// or distribution is permitted without written permission.          //// 
.................... //// Derivative programs created using this software in object code    //// 
.................... //// form are not restricted in any way.                               //// 
.................... /////////////////////////////////////////////////////////////////////////// 
.................... #device PIC18F2685 
000B6:  MOVFF  FF2,0D
000BA:  BCF    FF2.7
000BC:  CLRF   FF7
000BE:  ADDLW  D4
000C0:  MOVWF  FF6
000C2:  MOVLW  00
000C4:  ADDWFC FF7,F
000C6:  MOVLW  00
000C8:  MOVWF  FF8
000CA:  TBLRD*+
000CC:  MOVF   FF5,W
000CE:  BTFSC  0D.7
000D0:  BSF    FF2.7
000D2:  RETURN 0
000D4:  DATA A0,A0
000D6:  DATA 01,A0
000D8:  DATA 50,01
000DA:  DATA A0,A0
000DC:  DATA 01,A0
000DE:  DATA 82,01
000E0:  DATA 50,A0
000E2:  DATA 01,00
000E4:  DATA 00,01
000E6:  DATA 82,A0
000E8:  DATA 01,A0
000EA:  DATA A0,01
*
00126:  MOVF   x67,W
00128:  CLRF   01
0012A:  SUBWF  x66,W
0012C:  BC    0134
0012E:  MOVFF  66,00
00132:  BRA    014C
00134:  CLRF   00
00136:  MOVLW  08
00138:  MOVWF  x68
0013A:  RLCF   x66,F
0013C:  RLCF   00,F
0013E:  MOVF   x67,W
00140:  SUBWF  00,W
00142:  BTFSC  FD8.0
00144:  MOVWF  00
00146:  RLCF   01,F
00148:  DECFSZ x68,F
0014A:  BRA    013A
0014C:  GOTO   018C (RETURN)
*
00626:  BTFSS  07.7
00628:  BRA    0630
0062A:  MOVFF  FF2,0D
0062E:  BCF    FF2.7
00630:  ADDWF  FE8,W
00632:  CLRF   FF7
00634:  RLCF   FF7,F
00636:  ADDLW  59
00638:  MOVWF  FF6
0063A:  MOVLW  06
0063C:  ADDWFC FF7,F
0063E:  MOVLW  00
00640:  MOVWF  FF8
00642:  MOVWF  FFB
00644:  TBLRD*-
00646:  MOVF   FF5,W
00648:  MOVWF  FFA
0064A:  TBLRD*
0064C:  MOVF   FF5,W
0064E:  BTFSS  07.7
00650:  BRA    0656
00652:  BTFSC  0D.7
00654:  BSF    FF2.7
00656:  MOVWF  FF9
00658:  DATA B4,05
0065A:  DATA B8,05
0065C:  DATA BC,05
0065E:  DATA C0,05
00660:  DATA C4,05
00662:  DATA C8,05
00664:  DATA CC,05
00666:  DATA D0,05
00668:  DATA D4,05
0066A:  DATA D8,05
0066C:  BTFSS  07.7
0066E:  BRA    0676
00670:  MOVFF  FF2,0D
00674:  BCF    FF2.7
00676:  ADDWF  FE8,W
00678:  CLRF   FF7
0067A:  RLCF   FF7,F
0067C:  ADDLW  9F
0067E:  MOVWF  FF6
00680:  MOVLW  06
00682:  ADDWFC FF7,F
00684:  MOVLW  00
00686:  MOVWF  FF8
00688:  MOVWF  FFB
0068A:  TBLRD*-
0068C:  MOVF   FF5,W
0068E:  MOVWF  FFA
00690:  TBLRD*
00692:  MOVF   FF5,W
00694:  BTFSS  07.7
00696:  BRA    069C
00698:  BTFSC  0D.7
0069A:  BSF    FF2.7
0069C:  MOVWF  FF9
0069E:  DATA FE,05
006A0:  DATA 02,06
006A2:  DATA 06,06
006A4:  DATA 0A,06
006A6:  DATA 0E,06
006A8:  DATA 12,06
006AA:  DATA 16,06
006AC:  DATA 1A,06
006AE:  DATA 1E,06
006B0:  DATA 22,06
*
00AB2:  CLRF   01
00AB4:  CLRF   02
00AB6:  CLRF   00
00AB8:  CLRF   03
00ABA:  MOVF   59,W
00ABC:  BNZ   0AC2
00ABE:  MOVF   58,W
00AC0:  BZ    0AF2
00AC2:  MOVLW  10
00AC4:  MOVWF  5A
00AC6:  BCF    FD8.0
00AC8:  RLCF   56,F
00ACA:  RLCF   57,F
00ACC:  RLCF   00,F
00ACE:  RLCF   03,F
00AD0:  MOVF   59,W
00AD2:  SUBWF  03,W
00AD4:  BNZ   0ADA
00AD6:  MOVF   58,W
00AD8:  SUBWF  00,W
00ADA:  BNC   0AEA
00ADC:  MOVF   58,W
00ADE:  SUBWF  00,F
00AE0:  BTFSS  FD8.0
00AE2:  DECF   03,F
00AE4:  MOVF   59,W
00AE6:  SUBWF  03,F
00AE8:  BSF    FD8.0
00AEA:  RLCF   01,F
00AEC:  RLCF   02,F
00AEE:  DECFSZ 5A,F
00AF0:  BRA    0AC6
00AF2:  RETURN 0
*
00EFA:  CLRF   58
00EFC:  CLRF   59
00EFE:  MOVLW  01
00F00:  MOVWF  5A
00F02:  CLRF   FDA
00F04:  CLRF   FD9
00F06:  CLRF   5D
00F08:  MOVLW  50
00F0A:  MOVWF  5C
00F0C:  CLRF   FEA
00F0E:  MOVLW  54
00F10:  MOVWF  FE9
00F12:  MOVFF  5D,FE2
00F16:  MOVFF  5C,FE1
00F1A:  MOVFF  5A,5B
00F1E:  BCF    FD8.0
00F20:  MOVF   FE5,W
00F22:  MULWF  FEE
00F24:  MOVF   FF3,W
00F26:  ADDWFC 58,F
00F28:  MOVF   FF4,W
00F2A:  ADDWFC 59,F
00F2C:  DECFSZ 5B,F
00F2E:  BRA    0F1E
00F30:  MOVFF  58,FDE
00F34:  MOVFF  59,58
00F38:  CLRF   59
00F3A:  BTFSC  FD8.0
00F3C:  INCF   59,F
00F3E:  INCF   5C,F
00F40:  BTFSC  FD8.2
00F42:  INCF   5D,F
00F44:  INCF   5A,F
00F46:  MOVF   5A,W
00F48:  SUBLW  05
00F4A:  BNZ   0F0C
00F4C:  GOTO   102E (RETURN)
00F50:  BTFSC  FD8.1
00F52:  BRA    0F5A
00F54:  CLRF   FEA
00F56:  MOVLW  58
00F58:  MOVWF  FE9
00F5A:  CLRF   00
00F5C:  CLRF   01
00F5E:  CLRF   02
00F60:  CLRF   03
00F62:  CLRF   58
00F64:  CLRF   59
00F66:  CLRF   5A
00F68:  CLRF   5B
00F6A:  MOVF   57,W
00F6C:  IORWF  56,W
00F6E:  IORWF  55,W
00F70:  IORWF  54,W
00F72:  BZ    0FCC
00F74:  MOVLW  20
00F76:  MOVWF  5C
00F78:  BCF    FD8.0
00F7A:  RLCF   50,F
00F7C:  RLCF   51,F
00F7E:  RLCF   52,F
00F80:  RLCF   53,F
00F82:  RLCF   58,F
00F84:  RLCF   59,F
00F86:  RLCF   5A,F
00F88:  RLCF   5B,F
00F8A:  MOVF   57,W
00F8C:  SUBWF  5B,W
00F8E:  BNZ   0FA0
00F90:  MOVF   56,W
00F92:  SUBWF  5A,W
00F94:  BNZ   0FA0
00F96:  MOVF   55,W
00F98:  SUBWF  59,W
00F9A:  BNZ   0FA0
00F9C:  MOVF   54,W
00F9E:  SUBWF  58,W
00FA0:  BNC   0FC0
00FA2:  MOVF   54,W
00FA4:  SUBWF  58,F
00FA6:  MOVF   55,W
00FA8:  BTFSS  FD8.0
00FAA:  INCFSZ 55,W
00FAC:  SUBWF  59,F
00FAE:  MOVF   56,W
00FB0:  BTFSS  FD8.0
00FB2:  INCFSZ 56,W
00FB4:  SUBWF  5A,F
00FB6:  MOVF   57,W
00FB8:  BTFSS  FD8.0
00FBA:  INCFSZ 57,W
00FBC:  SUBWF  5B,F
00FBE:  BSF    FD8.0
00FC0:  RLCF   00,F
00FC2:  RLCF   01,F
00FC4:  RLCF   02,F
00FC6:  RLCF   03,F
00FC8:  DECFSZ 5C,F
00FCA:  BRA    0F78
00FCC:  MOVFF  58,FEF
00FD0:  MOVFF  59,FEC
00FD4:  MOVFF  5A,FEC
00FD8:  MOVFF  5B,FEC
00FDC:  RETURN 0
....................  
.................... #list 
....................  
....................  
.................... // ============================================================================ 
.................... // FUSES CONFIGURATION 
.................... // ============================================================================ 
.................... #fuses HS                    // High-speed crystal oscillator (20MHz) 
.................... #fuses NOWDT                 // No watchdog timer 
.................... #fuses NOPUT                 // No power-up timer 
.................... #fuses NOBROWNOUT            // No brownout reset 
.................... #fuses NOLVP                 // No low voltage programming 
.................... #fuses NOCPD                 // No data EEPROM protection 
.................... #fuses NOWRT                 // Program memory not write protected 
.................... #fuses NODEBUG               // No debug mode 
.................... #fuses NOPROTECT             // Code not protected 
.................... #fuses MCLR                  // Master clear enabled 
.................... #fuses NOPBADEN              // PORTB A/D pins configured as digital 
....................  
.................... #use delay(clock=20000000)   // 20MHz clock 
*
002A2:  CLRF   FEA
002A4:  MOVLW  65
002A6:  MOVWF  FE9
002A8:  MOVF   FEF,W
002AA:  BZ    02C6
002AC:  MOVLW  06
002AE:  MOVWF  01
002B0:  CLRF   00
002B2:  DECFSZ 00,F
002B4:  BRA    02B2
002B6:  DECFSZ 01,F
002B8:  BRA    02B0
002BA:  MOVLW  7B
002BC:  MOVWF  00
002BE:  DECFSZ 00,F
002C0:  BRA    02BE
002C2:  DECFSZ FEF,F
002C4:  BRA    02AC
002C6:  RETURN 0
....................  
.................... // ============================================================================ 
.................... // PIN MAPPING 
.................... // ============================================================================ 
....................  
.................... // --- IR SENSORS (Line detection) --- 
.................... #define SENSOR_LEFT      PIN_A0    // Left IR sensor (Active LOW) 
.................... #define SENSOR_MID       PIN_A1    // Middle IR sensor (Active LOW) 
.................... #define SENSOR_RIGHT     PIN_A2    // Right IR sensor (Active LOW) 
....................  
.................... // --- MOTOR DRIVER TB6612FNG --- 
.................... #define MOTOR_PWMA       PIN_C2    // PWM for Motor A (Left) 
.................... #define MOTOR_PWMB       PIN_C3    // PWM for Motor B (Right) 
.................... #define MOTOR_AIN1       PIN_C6    // Direction control A (Left motor) 
.................... #define MOTOR_BIN1       PIN_C7    // Direction control B (Right motor) 
.................... #define MOTOR_STBY       PIN_B6    // Standby (must be HIGH to enable) 
....................  
.................... // --- ULTRASONIC SENSOR HC-SR04 --- 
.................... #define ULTRA_TRIG       PIN_B4    // Trigger pin 
.................... #define ULTRA_ECHO       PIN_B5    // Echo pin 
....................  
.................... // --- PERIPHERALS --- 
.................... #define LED_STATUS       PIN_B2    //B2 LED1 - Status LED (run indicator) 
.................... #define LED_ACTION       PIN_B3    //B3 LED2 - Action LED (ball grab/release) 
.................... #define SERVO_GRAB       PIN_C4    // Servo for ball grabber 
.................... #define RELAY_RELEASE    PIN_C5    // Relay/Servo for ball release 
.................... #define BUTTON_SYSTEM    PIN_B7    // System ON/OFF button (simple toggle) 
.................... #define BUTTON_STOP      PIN_B0    // STOP button (checkpoint logic) 
.................... #define BUTTON_RUN       PIN_B1    // RUN button (start from checkpoint) 
....................  
.................... // ============================================================================ 
.................... // SYSTEM CONSTANTS 
.................... // ============================================================================ 
....................  
.................... // --- PWM Settings --- 
.................... #define BASE_PWM         160       // Base PWM duty cycle (0-255) 
.................... #define SLOW_PWM         80        // Slow speed for precise maneuvers 
.................... #define STOP_PWM         0         // Stop motor 
....................  
.................... // --- Sensor Filter --- 
.................... #define CHATTER_N        3         // Number of consecutive samples for filter 
....................  
.................... // --- Distance Thresholds (cm) --- 
.................... #define STOP_CM_STATION  2         // Stop distance at ball pickup station 
.................... #define STOP_CM_END      5         // Stop distance at END point 
.................... #define REVERSE_MM       250       // Reverse distance after ball pickup (mm) 
....................  
.................... // --- Timing Constants (ms) --- 
.................... #define GRAB_MS          2000      // Ball grab duration 
.................... #define RELEASE_MS       2000      // Ball release duration 
.................... #define LINE_LOST_MS     300       // Max time to maintain direction when line lost 
.................... #define NAV_MIN_MS       200       // Minimum time for navigation turn 
.................... #define CROSS_DELAY_MS   150       // Delay to cross intersection 
....................  
.................... // --- Retry Limits --- 
.................... #define MAX_RETRIES      3         // Maximum error recovery attempts 
....................  
.................... // ============================================================================ 
.................... // SENSOR PATTERN DEFINITIONS (for lookup table) 
.................... // ============================================================================ 
.................... #define PATTERN_000      0b000     // No line detected (all white) 
.................... #define PATTERN_001      0b001     // Strong right deviation 
.................... #define PATTERN_010      0b010     // Centered on line 
.................... #define PATTERN_011      0b011     // Light right deviation 
.................... #define PATTERN_100      0b100     // Strong left deviation 
.................... #define PATTERN_101      0b101     // T-junction or end point 
.................... #define PATTERN_110      0b110     // Light left deviation 
.................... #define PATTERN_111      0b111     // Intersection detected 
....................  
.................... // ============================================================================ 
.................... // MOTOR DIRECTION DEFINITIONS 
.................... // ============================================================================ 
.................... #define DIR_FORWARD      1 
.................... #define DIR_REVERSE      0 
....................  
.................... #endif 
....................  
....................  
....................  
.................... // Include subsystem headers 
.................... #include "fsm.h" 
.................... //////////////////////////////////////////////////////////////////////////////// 
.................... // FILE: fsm.h 
.................... // DESC: Finite State Machine header - state definitions and function declarations 
.................... //////////////////////////////////////////////////////////////////////////////// 
....................  
.................... #ifndef FSM_H 
.................... #define FSM_H 
....................  
.................... // ============================================================================ 
.................... // STATE ENUMERATION (9 states) 
.................... // ============================================================================ 
.................... typedef enum { 
....................     STATE_IDLE = 0,           // Waiting for RUN button 
....................     STATE_FOLLOW_LINE,        // Normal line following 
....................     STATE_STATION,            // Approaching ball pickup station 
....................     STATE_STATION_STOP,       // Stopped at station, grabbing ball 
....................     STATE_STATION_BACK,       // Reversing from station 
....................     STATE_NAVIGATION,         // Turning at junction (T or intersection) 
....................     STATE_END,                // Reached END point 
....................     STATE_END_REVERSE,        // Reversing after ball release 
....................     STATE_ERROR,              // Error recovery state 
....................     STATE_CHECKPOINT          // Checkpoint management state 
.................... } SystemState_t; 
....................  
.................... // ============================================================================ 
.................... // ERROR TYPE ENUMERATION 
.................... // ============================================================================ 
.................... typedef enum { 
....................     ERR_NONE = 0, 
....................     ERR_LOST_LINE,           // Lost line for too long 
....................     ERR_NOISE,               // Sensor noise detected 
....................     ERR_ULTRASONIC,          // Ultrasonic timeout 
....................     ERR_BALL_GRAB            // Ball grab failed 
.................... } ErrorType_t; 
....................  
.................... // ============================================================================ 
.................... // NAVIGATION DIRECTION 
.................... // ============================================================================ 
.................... typedef enum { 
....................     NAV_STRAIGHT = 0, 
....................     NAV_RIGHT, 
....................     NAV_LEFT, 
....................     NAV_UTURN 
.................... } NavDirection_t; 
....................  
.................... // ============================================================================ 
.................... // CHECKPOINT ENUMERATION 
.................... // ============================================================================ 
.................... typedef enum { 
....................     CP_START = 1,            // Starting position (checkpoint 1) 
....................     CP_AFTER_NAVIGATION,     // After navigation success (checkpoint 2) 
....................     CP_BEFORE_END            // Before END point (checkpoint 3) 
.................... } Checkpoint_t; 
....................  
.................... // ============================================================================ 
.................... // GLOBAL VARIABLES (declared as extern, defined in fsm.c) 
.................... // ============================================================================ 
.................... extern volatile SystemState_t current_state; 
.................... extern volatile SystemState_t previous_state; 
.................... extern ErrorType_t current_error; 
.................... extern NavDirection_t nav_direction; 
.................... extern Checkpoint_t current_checkpoint; 
.................... extern volatile int1 run_flag; 
.................... extern volatile int1 ball_grabbed; 
.................... extern int8 retry_count; 
....................  
.................... // ============================================================================ 
.................... // FUNCTION PROTOTYPES 
.................... // ============================================================================ 
....................  
.................... // Main state transition function 
.................... void fsm_transition(SystemState_t next_state); 
....................  
.................... // State entry functions (called once when entering state) 
.................... void state_idle_entry(void); 
.................... void state_follow_line_entry(void); 
.................... void state_station_entry(void); 
.................... void state_station_stop_entry(void); 
.................... void state_station_back_entry(void); 
.................... void state_navigation_entry(void); 
.................... void state_end_entry(void); 
.................... void state_end_reverse_entry(void); 
.................... void state_error_entry(void); 
.................... void state_checkpoint_entry(void); 
....................  
.................... // State update functions (called repeatedly in main loop) 
.................... void state_idle_update(void); 
.................... void state_follow_line_update(void); 
.................... void state_station_update(void); 
.................... void state_station_stop_update(void); 
.................... void state_station_back_update(void); 
.................... void state_navigation_update(void); 
.................... void state_end_update(void); 
.................... void state_end_reverse_update(void); 
.................... void state_error_update(void); 
.................... void state_checkpoint_update(void); 
....................  
.................... // State exit functions (called once when leaving state) 
.................... void state_idle_exit(void); 
.................... void state_follow_line_exit(void); 
.................... void state_station_exit(void); 
.................... void state_station_stop_exit(void); 
.................... void state_station_back_exit(void); 
.................... void state_navigation_exit(void); 
.................... void state_end_exit(void); 
.................... void state_end_reverse_exit(void); 
.................... void state_error_exit(void); 
.................... void state_checkpoint_exit(void); 
....................  
.................... // Utility functions 
.................... void fsm_handle_error(ErrorType_t error); 
.................... void fsm_save_checkpoint(Checkpoint_t cp); 
.................... void fsm_restore_checkpoint(void); 
....................  
.................... #endif // FSM_H 
....................  
....................  
.................... #include "motor.h" 
.................... //////////////////////////////////////////////////////////////////////////////// 
.................... // FILE: motor.h 
.................... // DESC: Motor control header - command structure and function declarations 
.................... //////////////////////////////////////////////////////////////////////////////// 
....................  
.................... #ifndef MOTOR_H 
.................... #define MOTOR_H 
....................  
.................... // ============================================================================ 
.................... // MOTOR COMMAND STRUCTURE 
.................... // ============================================================================ 
.................... typedef struct { 
....................     int8 left_pwm;           // Left motor PWM (0-255) 
....................     int8 right_pwm;          // Right motor PWM (0-255) 
....................     int1 direction;          // 1=Forward, 0=Reverse 
.................... } MotorCmd_t; 
....................  
.................... // ============================================================================ 
.................... // LOOKUP TABLE FOR LINE FOLLOWING 
.................... // Located in ROM to save RAM (8 patterns) 
.................... // ============================================================================ 
.................... extern const MotorCmd_t motor_table[8]; 
....................  
.................... // ============================================================================ 
.................... // FUNCTION PROTOTYPES 
.................... // ============================================================================ 
....................  
.................... // Initialize PWM for motor control 
.................... void motor_init(void); 
....................  
.................... // Set motor speeds and direction 
.................... void motor_set(int8 left_pwm, int8 right_pwm, int1 direction); 
....................  
.................... // Get motor command from lookup table based on sensor pattern 
.................... MotorCmd_t motor_get_command(int8 pattern); 
....................  
.................... // Special motor control functions 
.................... void motor_stop(void); 
.................... void motor_forward(int8 speed); 
.................... void motor_reverse(int8 speed); 
.................... void motor_turn_right(int8 speed); 
.................... void motor_turn_left(int8 speed); 
.................... void motor_pivot_right(int8 speed);  // Turn in place 
.................... void motor_pivot_left(int8 speed);   // Turn in place 
....................  
.................... // Enable/disable motor driver 
.................... void motor_enable(void); 
.................... void motor_disable(void); 
....................  
.................... #endif // MOTOR_H 
....................  
....................  
.................... #include "sensors.h" 
.................... //////////////////////////////////////////////////////////////////////////////// 
.................... // FILE: sensors.h 
.................... // DESC: IR sensor reading and chatter filter header 
.................... //////////////////////////////////////////////////////////////////////////////// 
....................  
.................... #ifndef SENSORS_H 
.................... #define SENSORS_H 
....................  
.................... // ============================================================================ 
.................... // FUNCTION PROTOTYPES 
.................... // ============================================================================ 
....................  
.................... // Read raw sensor pattern (3 bits: Left-Mid-Right) 
.................... // Returns 0b000 to 0b111 
.................... int8 sensors_read_raw(void); 
....................  
.................... // Read filtered sensor pattern using chatter filter 
.................... // Requires N consecutive identical readings 
.................... int8 sensors_read_filtered(void); 
....................  
.................... // Chatter filter - called from ISR 
.................... // Updates internal state with new reading 
.................... void sensors_chatter_filter(int8 new_reading); 
....................  
.................... // Get last valid pattern (used when line is lost) 
.................... int8 sensors_get_last_valid(void); 
....................  
.................... // Set last valid pattern (for manual override) 
.................... void sensors_set_last_valid(int8 pattern); 
....................  
.................... // Check if pattern is valid line (not 000 or 111) 
.................... int1 sensors_is_valid_line(int8 pattern); 
....................  
.................... // Check if pattern indicates intersection (111) 
.................... int1 sensors_is_intersection(int8 pattern); 
....................  
.................... // Check if pattern indicates T-junction (101) 
.................... int1 sensors_is_tjunction(int8 pattern); 
....................  
.................... // Check if line is lost (000) 
.................... int1 sensors_is_lost(int8 pattern); 
....................  
.................... // LED control functions (for status indication) 
.................... void sensors_led_status(int1 state); 
.................... void sensors_led_status_toggle(void);  // Toggle LED1 for blinking 
.................... void sensors_led_action(int1 state); 
.................... void sensors_led_action_toggle(void);  // Toggle LED2 for blinking 
.................... void sensors_led_blink_action(void);  // Non-blocking blink - DEPRECATED 
....................  
.................... // Calibration functions (if needed) 
.................... void sensors_calibrate_start(void); 
.................... void sensors_calibrate_update(void); 
.................... int1 sensors_is_calibrated(void); 
....................  
.................... // Initialize sensor GPIO 
.................... void sensors_init(void); 
....................  
.................... #endif // SENSORS_H 
....................  
....................  
.................... #include "ultrasonic.h" 
.................... //////////////////////////////////////////////////////////////////////////////// 
.................... // FILE: ultrasonic.h 
.................... // DESC: Ultrasonic sensor HC-SR04 header 
.................... //////////////////////////////////////////////////////////////////////////////// 
....................  
.................... #ifndef ULTRASONIC_H 
.................... #define ULTRASONIC_H 
....................  
.................... // ============================================================================ 
.................... // CONSTANTS 
.................... // ============================================================================ 
.................... #define ULTRA_TIMEOUT    30000     // Timeout in microseconds (~500cm) 
.................... #define ULTRA_ERROR      255       // Error return value 
....................  
.................... // ============================================================================ 
.................... // FUNCTION PROTOTYPES 
.................... // ============================================================================ 
....................  
.................... // Initialize ultrasonic sensor pins 
.................... void ultrasonic_init(void); 
....................  
.................... // Read distance in centimeters 
.................... // Returns distance in cm or ULTRA_ERROR on timeout 
.................... int8 ultrasonic_read_cm(void); 
....................  
.................... // Read distance in millimeters (for precise reverse operation) 
.................... int16 ultrasonic_read_mm(void); 
....................  
.................... // Check if object is closer than threshold 
.................... int1 ultrasonic_check_close(int8 threshold_cm); 
....................  
.................... // Trigger pulse generation 
.................... void ultrasonic_trigger(void); 
....................  
.................... // Wait for echo and calculate distance 
.................... // Low-level function used by read_cm() 
.................... int16 ultrasonic_measure_pulse(void); 
....................  
.................... #endif // ULTRASONIC_H 
....................  
....................  
....................  
.................... // Standard includes 
.................... #include <stdint.h> 
.................... /////////////////////////////////////////////////////////////////////////// 
.................... ////                                                                   //// 
.................... ////                           stdint.h                                //// 
.................... ////                                                                   //// 
.................... //// Standard integer definitions.                                     //// 
.................... ////                                                                   //// 
.................... /////////////////////////////////////////////////////////////////////////// 
.................... ////        (C) Copyright 1996,2008 Custom Computer Services           //// 
.................... //// This source code may only be used by licensed users of the CCS C  //// 
.................... //// compiler.  This source code may only be distributed to other      //// 
.................... //// licensed users of the CCS C compiler.  No other use, reproduction //// 
.................... //// or distribution is permitted without written permission.          //// 
.................... //// Derivative programs created using this software in object code    //// 
.................... //// form are not restricted in any way.                               //// 
.................... /////////////////////////////////////////////////////////////////////////// 
....................  
.................... #ifndef _STDINT 
....................  
.................... #define _STDINT 
....................  
.................... //////////// exact width 
....................  
.................... typedef signed int8 int8_t; 
.................... typedef unsigned int8 uint8_t; 
.................... typedef signed int16 int16_t; 
.................... typedef unsigned int16 uint16_t; 
.................... typedef signed int32 int32_t; 
.................... typedef unsigned int32 uint32_t; 
....................  
.................... #if defined(__PCD__) 
.................... //typedef signed int24 int24_t; 
.................... //typedef unsigned int24 uint24_t; 
.................... typedef signed int64 int64_t; 
.................... typedef unsigned int64 uint64_t; 
.................... #endif 
....................  
.................... #define INT8_MAX  (128) 
.................... #define INT8_MIN  (-127) 
.................... #define UINT8_MAX (255) 
....................  
.................... #define INT16_MAX  (32767) 
.................... #define INT16_MIN  (-32768) 
.................... #define UINT16_MAX (65535) 
....................  
.................... #define INT32_MAX  (2147483647) 
.................... #define INT32_MIN  (-2147483648) 
.................... #define UINT32_MAX (4294967295) 
....................  
.................... #if defined(__PCD__) 
.................... //#define INT24_MAX  (8388607) 
.................... //#define INT24_MIN  (-8388608) 
.................... //#define UINT24_MAX (16777215) 
....................  
.................... #define INT64_MAX  (9223372036854775807) 
.................... #define INT64_MIN  (-9223372036854775808) 
.................... #define UINT64_MAX (18446744073709551615) 
.................... #endif 
....................  
.................... ///////// minimum width 
....................  
.................... typedef signed int8 int_least8_t; 
.................... typedef unsigned int8 uint_least8_t; 
.................... typedef signed int16 int_least16_t; 
.................... typedef unsigned int16 uint_least16_t; 
.................... typedef signed int32 int_least32_t; 
.................... typedef unsigned int32 uint_least32_t; 
....................  
.................... #if defined(__PCD__) 
.................... //typedef signed int24 int_least24_t; 
.................... //typedef unsigned int24 uint_least24_t; 
.................... typedef signed int64 int_least64_t; 
.................... typedef unsigned int64 uint_least64_t; 
.................... #endif 
....................  
.................... #define INT_LEAST8_MAX  (128) 
.................... #define INT_LEAST8_MIN  (-127) 
.................... #define UINT_LEAST8_MAX (255) 
....................  
.................... #define INT_LEAST16_MAX  (32767) 
.................... #define INT_LEAST16_MIN  (-32768) 
.................... #define UINT_LEAST16_MAX (65535) 
....................  
.................... #define INT_LEAST32_MAX  (2147483647) 
.................... #define INT_LEAST32_MIN  (-2147483648) 
.................... #define UINT_LEAST32_MAX (4294967295) 
....................  
.................... #if defined(__PCD__) 
.................... //#define INT_LEAST24_MAX  (8388607) 
.................... //#define INT_LEAST24_MIN  (-8388608) 
.................... //#define UINT_LEAST24_MAX (16777215) 
....................  
.................... #define INT_LEAST64_MAX  (9223372036854775807) 
.................... #define INT_LEAST64_MIN  (-9223372036854775808) 
.................... #define UINT_LEAST64_MAX (18446744073709551615) 
.................... #endif 
....................  
.................... ///////// fastest width 
....................  
.................... #if defined(__PCD__) 
.................... typedef signed int16 int_fast8_t; 
.................... typedef unsigned int16 uint_fast8_t; 
.................... #define INT_FAST8_MAX  (32767) 
.................... #define INT_FAST8_MIN  (-32768) 
.................... #define UINT_FAST8_MAX (65535) 
.................... typedef signed int16 int_fast16_t; 
.................... typedef unsigned int16 uint_fast16_t; 
.................... //typedef signed int24 int_fast24_t; 
.................... //typedef unsigned int24 uint_fast24_t; 
.................... typedef signed int64 int_fast64_t; 
.................... typedef unsigned int64 uint_fast64_t; 
.................... #else 
.................... typedef signed int8 int_fast8_t; 
.................... typedef unsigned int8 uint_fast8_t; 
.................... #define INT_FAST8_MAX  (128) 
.................... #define INT_FAST8_MIN  (-127) 
.................... #define UINT_FAST8_MAX (255) 
.................... typedef signed int16 int_fast16_t; 
.................... typedef unsigned int16 uint_fast16_t; 
.................... #endif 
....................  
.................... typedef signed int32 int_fast32_t; 
.................... typedef unsigned int32 uint_fast32_t; 
....................  
.................... #define INT_FAST16_MAX  (32767) 
.................... #define INT_FAST16_MIN  (-32768) 
.................... #define UINT_FAST16_MAX (65535) 
....................  
.................... #define INT_FAST32_MAX  (2147483647) 
.................... #define INT_FAST32_MIN  (-2147483648) 
.................... #define UINT_FAST32_MAX (4294967295) 
....................  
.................... #if defined(__PCD__) 
.................... //#define INT_FAST24_MAX  (8388607) 
.................... //#define INT_FAST24_MIN  (-8388608) 
.................... //#define UINT_FAST24_MAX (16777215) 
....................  
.................... #define INT_FAST64_MAX  (9223372036854775807) 
.................... #define INT_FAST64_MIN  (-9223372036854775808) 
.................... #define UINT_FAST64_MAX (18446744073709551615) 
.................... #endif 
....................  
.................... //////////// big enough to hold pointers (OPTIONAL) 
....................  
.................... /// TODO 
....................  
.................... /// intptr_t uintptr_t 
....................  
.................... /// INTPTRN_MIN INTPTRN_MAX UINTPTRN_MAX 
....................  
....................  
.................... /////////// greatest width (OPTIONAL) 
....................  
.................... /// TODO 
....................  
.................... /// intmax_t uintmax_t 
....................  
.................... /// INTMAXN_MIN INTMAXN_MAX UINTMAXN_MAX 
....................  
.................... /// INTMAX_C(value) UINTMAX_C(value) 
....................  
....................  
.................... #endif 
....................  
.................... #include <stdbool.h> 
.................... /////////////////////////////////////////////////////////////////////////// 
.................... ////                                                                   //// 
.................... ////                          stdbool.h                                //// 
.................... ////                                                                   //// 
.................... //// Standard boolean definitions                                      //// 
.................... ////                                                                   //// 
.................... /////////////////////////////////////////////////////////////////////////// 
.................... ////        (C) Copyright 1996,2012 Custom Computer Services           //// 
.................... //// This source code may only be used by licensed users of the CCS C  //// 
.................... //// compiler.  This source code may only be distributed to other      //// 
.................... //// licensed users of the CCS C compiler.  No other use, reproduction //// 
.................... //// or distribution is permitted without written permission.          //// 
.................... //// Derivative programs created using this software in object code    //// 
.................... //// form are not restricted in any way.                               //// 
.................... /////////////////////////////////////////////////////////////////////////// 
....................  
.................... #ifndef __STDBOOL_H__ 
.................... #define __STDBOOL_H__ 
....................  
.................... //remove TRUE and FALSE added by CCS's device .h file 
.................... #if defined(TRUE) 
.................... #undef TRUE 
.................... #endif 
.................... #if defined(FALSE) 
.................... #undef FALSE 
.................... #endif 
....................  
.................... typedef int1   bool; 
.................... #define true   1 
.................... #define false  0 
.................... #define __bool_true_false_are_defined  1 
....................  
.................... #endif 
....................  
....................  
.................... // ============================================================================ 
.................... // GLOBAL TIMING VARIABLES (volatile - modified in ISR) 
.................... // ============================================================================ 
.................... extern volatile int32 ms_tick;        // System millisecond counter 
.................... extern volatile int16 led_tick;       // LED blink counter 
.................... extern volatile int1 led2_blink_enable;  // Enable LED2 blinking 
.................... extern volatile int8 led2_blink_count;   // Count LED2 blinks 
.................... extern volatile int1 programming_mode;   // Programming mode flag 
.................... extern volatile int16 led1_blink_tick;   // LED1 blink counter for programming mode 
....................  
.................... // ============================================================================ 
.................... // GLOBAL BUTTON FLAGS (volatile - modified in ISR) 
.................... // ============================================================================ 
.................... extern volatile int1 system_enabled;     // System ON/OFF state (RB7) 
.................... extern volatile int1 stop_pressed;       // STOP button - checkpoint logic (RB0) 
.................... extern volatile int1 run_pressed;        // RUN button - start from checkpoint (RB1) 
.................... extern volatile int1 cp1_long_press;     // Flag nh?n gi? STOP 
....................  
.................... // ============================================================================ 
.................... // FUNCTION PROTOTYPES 
.................... // ============================================================================ 
....................  
.................... // System initialization 
.................... void system_init(void); 
.................... void gpio_init(void); 
.................... void timers_init(void); 
.................... void pwm_init(void); 
.................... void interrupts_init(void); 
....................  
.................... // Peripheral control 
.................... void peripherals_grab_ball(void); 
.................... void peripherals_release_ball(void); 
....................  
.................... // Programming mode control 
.................... void enter_programming_mode(void); 
.................... void exit_programming_mode(void); 
.................... int1 is_programming_mode(void); 
....................  
.................... // Checkpoint button handling 
.................... void handle_checkpoint_buttons(void); 
....................  
.................... // Utility functions 
.................... void delay_ms_nonblocking(int16 ms); 
.................... int1 check_timeout(int32 start_time, int32 timeout_ms); 
.................... int32 get_ms_tick(void); 
....................  
.................... #endif // MAIN_H 
....................  
....................  
....................  
.................... // CCS C Compiler requires including .c files 
.................... #include "sensors.c" 
.................... //////////////////////////////////////////////////////////////////////////////// 
.................... // FILE: sensors.c 
.................... // DESC: IR sensor reading with chatter filter implementation 
.................... //////////////////////////////////////////////////////////////////////////////// 
....................  
.................... #include "main.h" 
.................... //////////////////////////////////////////////////////////////////////////////// 
.................... // FILE: main.h 
.................... // DESC: Main header file with standard libraries and global definitions 
.................... //////////////////////////////////////////////////////////////////////////////// 
....................  
.................... #ifndef MAIN_H 
.................... #define MAIN_H 
....................  
.................... // Include hardware configuration first 
.................... #include "config.h" 
....................  
.................... // Include subsystem headers 
.................... #include "fsm.h" 
.................... #include "motor.h" 
.................... #include "sensors.h" 
.................... #include "ultrasonic.h" 
....................  
.................... // Standard includes 
.................... #include <stdint.h> 
.................... #include <stdbool.h> 
....................  
.................... // ============================================================================ 
.................... // GLOBAL TIMING VARIABLES (volatile - modified in ISR) 
.................... // ============================================================================ 
.................... extern volatile int32 ms_tick;        // System millisecond counter 
.................... extern volatile int16 led_tick;       // LED blink counter 
.................... extern volatile int1 led2_blink_enable;  // Enable LED2 blinking 
.................... extern volatile int8 led2_blink_count;   // Count LED2 blinks 
.................... extern volatile int1 programming_mode;   // Programming mode flag 
.................... extern volatile int16 led1_blink_tick;   // LED1 blink counter for programming mode 
....................  
.................... // ============================================================================ 
.................... // GLOBAL BUTTON FLAGS (volatile - modified in ISR) 
.................... // ============================================================================ 
.................... extern volatile int1 system_enabled;     // System ON/OFF state (RB7) 
.................... extern volatile int1 stop_pressed;       // STOP button - checkpoint logic (RB0) 
.................... extern volatile int1 run_pressed;        // RUN button - start from checkpoint (RB1) 
.................... extern volatile int1 cp1_long_press;     // Flag nh?n gi? STOP 
....................  
.................... // ============================================================================ 
.................... // FUNCTION PROTOTYPES 
.................... // ============================================================================ 
....................  
.................... // System initialization 
.................... void system_init(void); 
.................... void gpio_init(void); 
.................... void timers_init(void); 
.................... void pwm_init(void); 
.................... void interrupts_init(void); 
....................  
.................... // Peripheral control 
.................... void peripherals_grab_ball(void); 
.................... void peripherals_release_ball(void); 
....................  
.................... // Programming mode control 
.................... void enter_programming_mode(void); 
.................... void exit_programming_mode(void); 
.................... int1 is_programming_mode(void); 
....................  
.................... // Checkpoint button handling 
.................... void handle_checkpoint_buttons(void); 
....................  
.................... // Utility functions 
.................... void delay_ms_nonblocking(int16 ms); 
.................... int1 check_timeout(int32 start_time, int32 timeout_ms); 
.................... int32 get_ms_tick(void); 
....................  
.................... #endif // MAIN_H 
....................  
....................  
....................  
.................... // ============================================================================ 
.................... // PRIVATE VARIABLES 
.................... // ============================================================================ 
.................... static int8 chatter_buffer[CHATTER_N];  // Circular buffer for filtering 
.................... static int8 chatter_index = 0;           // Current position in buffer 
.................... static int8 filtered_pattern = 0b010;    // Current filtered pattern 
.................... static int8 last_valid_pattern = 0b010;  // Last valid line pattern 
.................... static int1 calibrated = FALSE;          // Calibration status 
....................  
.................... // For LED blinking (non-blocking) 
.................... static int16 led_blink_start = 0; 
.................... static int1 led_blink_state = 0; 
....................  
.................... // ============================================================================ 
.................... // SENSOR INITIALIZATION 
.................... // ============================================================================ 
.................... void sensors_init(void) { 
....................     // Initialize chatter buffer 
....................     for (int8 i = 0; i < CHATTER_N; i++) { 
*
007B6:  CLRF   44
007B8:  MOVF   44,W
007BA:  SUBLW  02
007BC:  BNC   07D4
....................         chatter_buffer[i] = 0b010;  // Start with centered pattern 
007BE:  CLRF   03
007C0:  MOVF   44,W
007C2:  ADDLW  26
007C4:  MOVWF  FE9
007C6:  MOVLW  00
007C8:  ADDWFC 03,W
007CA:  MOVWF  FEA
007CC:  MOVLW  02
007CE:  MOVWF  FEF
007D0:  INCF   44,F
007D2:  BRA    07B8
....................     } 
....................      
....................     // Initialize LEDs 
....................     output_low(LED_STATUS); 
007D4:  BCF    F93.2
007D6:  BCF    F8A.2
....................     output_low(LED_ACTION); 
007D8:  BCF    F93.3
007DA:  BCF    F8A.3
....................      
....................     calibrated = TRUE;  // Skip calibration for now (can be implemented later) 
007DC:  BSF    1D.7
007DE:  GOTO   0848 (RETURN)
.................... } 
....................  
.................... // ============================================================================ 
.................... // READ RAW SENSOR PATTERN 
.................... // Sensors are ACTIVE LOW (line = 0, white = 1) 
.................... // We invert to get: line = 1, white = 0 
.................... // ============================================================================ 
.................... int8 sensors_read_raw(void) { 
*
00104:  CLRF   x61
....................     int8 pattern = 0; 
....................      
....................     // Read sensors (inverted logic) 
....................     if (!input(SENSOR_LEFT))  pattern |= 0b100;  // Left sensor 
00106:  BSF    F92.0
00108:  BTFSC  F80.0
0010A:  BRA    010E
0010C:  BSF    x61.2
....................     if (!input(SENSOR_MID))   pattern |= 0b010;  // Middle sensor   
0010E:  BSF    F92.1
00110:  BTFSC  F80.1
00112:  BRA    0116
00114:  BSF    x61.1
....................     if (!input(SENSOR_RIGHT)) pattern |= 0b001;  // Right sensor 
00116:  BSF    F92.2
00118:  BTFSC  F80.2
0011A:  BRA    011E
0011C:  BSF    x61.0
....................      
....................     return pattern; 
0011E:  MOVFF  61,01
00122:  GOTO   0220 (RETURN)
.................... } 
....................  
.................... // ============================================================================ 
.................... // CHATTER FILTER (called from ISR every 2ms) 
.................... // Requires N consecutive identical readings to accept change 
.................... // ============================================================================ 
.................... void sensors_chatter_filter(int8 new_reading) { 
....................     // Add new reading to buffer 
....................     chatter_buffer[chatter_index] = new_reading; 
*
0016C:  CLRF   03
0016E:  MOVF   29,W
00170:  ADDLW  26
00172:  MOVWF  FE9
00174:  MOVLW  00
00176:  ADDWFC 03,W
00178:  MOVWF  FEA
0017A:  MOVFF  61,FEF
....................     chatter_index = (chatter_index + 1) % CHATTER_N; 
0017E:  MOVLW  01
00180:  ADDWF  29,W
00182:  MOVWF  x65
00184:  MOVWF  x66
00186:  MOVLW  03
00188:  MOVWF  x67
0018A:  BRA    0126
0018C:  MOVFF  00,29
....................      
....................     // Check if all N samples are identical 
....................     int1 all_same = TRUE; 
00190:  BSF    x62.0
....................     for (int8 i = 1; i < CHATTER_N; i++) { 
00192:  MOVLW  01
00194:  MOVWF  x63
00196:  MOVF   x63,W
00198:  SUBLW  02
0019A:  BNC   01B8
....................         if (chatter_buffer[i] != chatter_buffer[0]) { 
0019C:  CLRF   03
0019E:  MOVF   x63,W
001A0:  ADDLW  26
001A2:  MOVWF  FE9
001A4:  MOVLW  00
001A6:  ADDWFC 03,W
001A8:  MOVWF  FEA
001AA:  MOVF   26,W
001AC:  SUBWF  FEF,W
001AE:  BZ    01B4
....................             all_same = FALSE; 
001B0:  BCF    x62.0
....................             break; 
001B2:  BRA    01B8
....................         } 
001B4:  INCF   x63,F
001B6:  BRA    0196
....................     } 
....................      
....................     // If all samples match, update filtered pattern 
....................     if (all_same) { 
001B8:  BTFSS  x62.0
001BA:  BRA    01CE
....................         filtered_pattern = chatter_buffer[0]; 
001BC:  MOVFF  26,2A
....................          
....................         // Update last valid pattern if this is a valid line 
....................         if (sensors_is_valid_line(filtered_pattern)) { 
001C0:  MOVFF  2A,64
001C4:  BRA    0150
001C6:  MOVF   01,F
001C8:  BZ    01CE
....................             last_valid_pattern = filtered_pattern; 
001CA:  MOVFF  2A,2B
....................         } 
....................     } 
001CE:  GOTO   022A (RETURN)
.................... } 
....................  
.................... // ============================================================================ 
.................... // READ FILTERED SENSOR PATTERN 
.................... // ============================================================================ 
.................... int8 sensors_read_filtered(void) { 
....................     return filtered_pattern; 
*
001E2:  MOVF   2A,W
001E4:  MOVWF  01
001E6:  RETURN 0
.................... } 
....................  
.................... // ============================================================================ 
.................... // GET LAST VALID PATTERN 
.................... // ============================================================================ 
.................... int8 sensors_get_last_valid(void) { 
....................     return last_valid_pattern; 
*
00C30:  MOVF   2B,W
00C32:  MOVWF  01
00C34:  RETURN 0
.................... } 
....................  
.................... // ============================================================================ 
.................... // SET LAST VALID PATTERN 
.................... // ============================================================================ 
.................... void sensors_set_last_valid(int8 pattern) { 
....................     last_valid_pattern = pattern; 
.................... } 
....................  
.................... // ============================================================================ 
.................... // CHECK IF PATTERN IS VALID LINE (not lost, not intersection) 
.................... // Valid patterns: 001, 010, 011, 100, 110 
.................... // Invalid: 000 (lost), 101 (T-junction), 111 (intersection) 
.................... // ============================================================================ 
.................... int1 sensors_is_valid_line(int8 pattern) { 
....................     return (pattern != 0b000 && pattern != 0b101 && pattern != 0b111); 
*
00150:  MOVF   x64,F
00152:  BZ    0160
00154:  MOVF   x64,W
00156:  SUBLW  05
00158:  BZ    0160
0015A:  MOVF   x64,W
0015C:  SUBLW  07
0015E:  BNZ   0164
00160:  MOVLW  00
00162:  BRA    0166
00164:  MOVLW  01
00166:  MOVWF  01
00168:  GOTO   01C6 (RETURN)
.................... } 
....................  
.................... // ============================================================================ 
.................... // CHECK IF INTERSECTION (all sensors on line) 
.................... // ============================================================================ 
.................... int1 sensors_is_intersection(int8 pattern) { 
....................     return (pattern == 0b111); 
*
00A7C:  MOVF   4A,W
00A7E:  SUBLW  07
00A80:  BZ    0A86
00A82:  MOVLW  00
00A84:  BRA    0A88
00A86:  MOVLW  01
00A88:  MOVWF  01
00A8A:  GOTO   0CC8 (RETURN)
.................... } 
....................  
.................... // ============================================================================ 
.................... // CHECK IF T-JUNCTION (left and right on line, middle off) 
.................... // ============================================================================ 
.................... int1 sensors_is_tjunction(int8 pattern) { 
....................     return (pattern == 0b101); 
*
00C0E:  MOVF   4A,W
00C10:  SUBLW  05
00C12:  BZ    0C18
00C14:  MOVLW  00
00C16:  BRA    0C1A
00C18:  MOVLW  01
00C1A:  MOVWF  01
00C1C:  GOTO   0D00 (RETURN)
.................... } 
....................  
.................... // ============================================================================ 
.................... // CHECK IF LINE IS LOST (all sensors on white) 
.................... // ============================================================================ 
.................... int1 sensors_is_lost(int8 pattern) { 
....................     return (pattern == 0b000); 
00C20:  MOVF   4A,F
00C22:  BZ    0C28
00C24:  MOVLW  00
00C26:  BRA    0C2A
00C28:  MOVLW  01
00C2A:  MOVWF  01
00C2C:  GOTO   0D72 (RETURN)
.................... } 
....................  
.................... // ============================================================================ 
.................... // LED CONTROL - STATUS (LED1) 
.................... // ============================================================================ 
.................... void sensors_led_status(int1 state) { 
....................     if (state) { 
*
001D2:  MOVF   x64,F
001D4:  BZ    01DC
....................         output_high(LED_STATUS);  // LED1 ON 
001D6:  BCF    F93.2
001D8:  BSF    F8A.2
....................     } else { 
001DA:  BRA    01E0
....................         output_low(LED_STATUS);   // LED1 OFF 
001DC:  BCF    F93.2
001DE:  BCF    F8A.2
....................     } 
001E0:  RETURN 0
.................... } 
....................  
.................... // ============================================================================ 
.................... // LED CONTROL - STATUS TOGGLE (for blinking LED1) 
.................... // ============================================================================ 
.................... void sensors_led_status_toggle(void) { 
....................     static int1 led_state = FALSE; 
....................     led_state = !led_state; 
....................     sensors_led_status(led_state);  // Toggle LED1 
.................... } 
....................  
.................... // ============================================================================ 
.................... // LED CONTROL - ACTION (LED2) 
.................... // ============================================================================ 
.................... void sensors_led_action(int1 state) { 
....................     if (state) { 
*
001E8:  MOVF   x64,F
001EA:  BZ    01F2
....................         output_high(LED_ACTION);  // LED2 ON 
001EC:  BCF    F93.3
001EE:  BSF    F8A.3
....................     } else { 
001F0:  BRA    01F6
....................         output_low(LED_ACTION);   // LED2 OFF 
001F2:  BCF    F93.3
001F4:  BCF    F8A.3
....................     } 
001F6:  RETURN 0
.................... } 
....................  
.................... // ============================================================================ 
.................... // LED CONTROL - ACTION TOGGLE (for blinking LED2) 
.................... // ============================================================================ 
.................... void sensors_led_action_toggle(void) { 
....................     static int1 led_state = FALSE; 
....................     led_state = !led_state; 
001F8:  BTG    2E.2
....................     sensors_led_action(led_state);  // Toggle LED2 
001FA:  MOVLW  00
001FC:  BTFSC  2E.2
001FE:  MOVLW  01
00200:  MOVWF  x61
00202:  MOVWF  x64
00204:  RCALL  01E8
00206:  GOTO   0276 (RETURN)
.................... } 
....................  
.................... // ============================================================================ 
.................... // LED BLINK ACTION (non-blocking, called from ISR) 
.................... // Toggles every 250ms - DEPRECATED 
.................... // ============================================================================ 
.................... void sensors_led_blink_action(void) { 
....................     if ((ms_tick - led_blink_start) >= 250) { 
....................         led_blink_state = !led_blink_state; 
....................         sensors_led_action(led_blink_state); 
....................         led_blink_start = ms_tick; 
....................     } 
.................... } 
....................  
.................... // ============================================================================ 
.................... // CALIBRATION FUNCTIONS (optional - can be implemented if needed) 
.................... // ============================================================================ 
.................... void sensors_calibrate_start(void) { 
....................     // Implement auto-calibration if needed 
....................     // For now, just mark as calibrated 
....................     calibrated = TRUE; 
.................... } 
....................  
.................... void sensors_calibrate_update(void) { 
....................     // Update calibration values 
....................     // Not implemented - sensors work with digital threshold 
.................... } 
....................  
.................... int1 sensors_is_calibrated(void) { 
....................     return calibrated; 
.................... } 
....................  
....................  
.................... #include "motor.c" 
.................... //////////////////////////////////////////////////////////////////////////////// 
.................... // FILE: motor.c 
.................... // DESC: Motor control implementation with PWM and lookup table 
.................... // PWM: Hardware PWM (CCP1/RC2) for left motor 
.................... //      Software PWM (Timer2 interrupt) for right motor 
.................... //////////////////////////////////////////////////////////////////////////////// 
....................  
.................... #include "main.h" 
.................... //////////////////////////////////////////////////////////////////////////////// 
.................... // FILE: main.h 
.................... // DESC: Main header file with standard libraries and global definitions 
.................... //////////////////////////////////////////////////////////////////////////////// 
....................  
.................... #ifndef MAIN_H 
.................... #define MAIN_H 
....................  
.................... // Include hardware configuration first 
.................... #include "config.h" 
....................  
.................... // Include subsystem headers 
.................... #include "fsm.h" 
.................... #include "motor.h" 
.................... #include "sensors.h" 
.................... #include "ultrasonic.h" 
....................  
.................... // Standard includes 
.................... #include <stdint.h> 
.................... #include <stdbool.h> 
....................  
.................... // ============================================================================ 
.................... // GLOBAL TIMING VARIABLES (volatile - modified in ISR) 
.................... // ============================================================================ 
.................... extern volatile int32 ms_tick;        // System millisecond counter 
.................... extern volatile int16 led_tick;       // LED blink counter 
.................... extern volatile int1 led2_blink_enable;  // Enable LED2 blinking 
.................... extern volatile int8 led2_blink_count;   // Count LED2 blinks 
.................... extern volatile int1 programming_mode;   // Programming mode flag 
.................... extern volatile int16 led1_blink_tick;   // LED1 blink counter for programming mode 
....................  
.................... // ============================================================================ 
.................... // GLOBAL BUTTON FLAGS (volatile - modified in ISR) 
.................... // ============================================================================ 
.................... extern volatile int1 system_enabled;     // System ON/OFF state (RB7) 
.................... extern volatile int1 stop_pressed;       // STOP button - checkpoint logic (RB0) 
.................... extern volatile int1 run_pressed;        // RUN button - start from checkpoint (RB1) 
.................... extern volatile int1 cp1_long_press;     // Flag nh?n gi? STOP 
....................  
.................... // ============================================================================ 
.................... // FUNCTION PROTOTYPES 
.................... // ============================================================================ 
....................  
.................... // System initialization 
.................... void system_init(void); 
.................... void gpio_init(void); 
.................... void timers_init(void); 
.................... void pwm_init(void); 
.................... void interrupts_init(void); 
....................  
.................... // Peripheral control 
.................... void peripherals_grab_ball(void); 
.................... void peripherals_release_ball(void); 
....................  
.................... // Programming mode control 
.................... void enter_programming_mode(void); 
.................... void exit_programming_mode(void); 
.................... int1 is_programming_mode(void); 
....................  
.................... // Checkpoint button handling 
.................... void handle_checkpoint_buttons(void); 
....................  
.................... // Utility functions 
.................... void delay_ms_nonblocking(int16 ms); 
.................... int1 check_timeout(int32 start_time, int32 timeout_ms); 
.................... int32 get_ms_tick(void); 
....................  
.................... #endif // MAIN_H 
....................  
....................  
....................  
.................... // ============================================================================ 
.................... // SOFTWARE PWM VARIABLES (for right motor on RC3) 
.................... // ============================================================================ 
.................... volatile int8 duty_R = 0;          // Right motor duty cycle (0-255) 
.................... volatile int8 timer2_count = 0;    // Timer2 counter for PWM comparison 
....................  
.................... // ============================================================================ 
.................... // LOOKUP TABLE (stored in ROM to save RAM) 
.................... // Maps sensor patterns (0b000 to 0b111) to motor commands 
.................... // Pattern format: [Left][Mid][Right] where 1=black line, 0=white surface 
.................... // ============================================================================ 
.................... const MotorCmd_t motor_table[8] = { 
....................     // 0b000: All white (line lost) - maintain previous direction 
....................     {BASE_PWM, BASE_PWM, DIR_FORWARD}, 
....................      
....................     // 0b001: Strong right deviation - turn right strongly 
....................     {BASE_PWM, SLOW_PWM, DIR_FORWARD}, 
....................      
....................     // 0b010: Centered on line - go straight 
....................     {BASE_PWM, BASE_PWM, DIR_FORWARD}, 
....................      
....................     // 0b011: Light right deviation - turn right gently 
....................     {BASE_PWM, BASE_PWM - 30, DIR_FORWARD}, 
....................      
....................     // 0b100: Strong left deviation - turn left strongly 
....................     {SLOW_PWM, BASE_PWM, DIR_FORWARD}, 
....................      
....................     // 0b101: T-junction or end point - stop 
....................     {STOP_PWM, STOP_PWM, DIR_FORWARD}, 
....................      
....................     // 0b110: Light left deviation - turn left gently 
....................     {BASE_PWM - 30, BASE_PWM, DIR_FORWARD}, 
....................      
....................     // 0b111: Intersection - go straight (will be handled by FSM) 
....................     {BASE_PWM, BASE_PWM, DIR_FORWARD} 
.................... }; 
....................  
.................... // ============================================================================ 
.................... // TIMER2 INTERRUPT - SOFTWARE PWM FOR RIGHT MOTOR 
.................... // Triggers at 20kHz (every 50µs) 
.................... // ============================================================================ 
.................... #INT_TIMER2 
.................... void timer2_isr(void) { 
....................     // Compare duty_R with timer2_count for PWM output 
....................     if (timer2_count < duty_R) { 
*
000EC:  MOVF   2F,W
000EE:  SUBWF  30,W
000F0:  BC    00F8
....................         output_high(MOTOR_PWMB);  // RC3 HIGH during ON phase 
000F2:  BCF    F94.3
000F4:  BSF    F8B.3
....................     } else { 
000F6:  BRA    00FC
....................         output_low(MOTOR_PWMB);   // RC3 LOW during OFF phase 
000F8:  BCF    F94.3
000FA:  BCF    F8B.3
....................     } 
....................      
....................     // Increment counter and wrap at 256 (matches 8-bit duty cycle) 
....................     timer2_count++; 
000FC:  INCF   30,F
000FE:  BCF    F9E.1
00100:  GOTO   0070
.................... } 
....................  
.................... // ============================================================================ 
.................... // MOTOR INITIALIZATION 
.................... // ============================================================================ 
.................... void motor_init(void) { 
....................     // Setup Timer2 for 20kHz PWM frequency 
....................     // Fosc = 20MHz, PWM freq = Fosc / (4 * (PR2+1) * TMR2 prescaler) 
....................     // For 20kHz: PR2 = 249 with prescaler = 1 
....................     setup_timer_2(T2_DIV_BY_1, 249, 1); 
*
007FE:  MOVLW  00
00800:  IORLW  04
00802:  MOVWF  FCA
00804:  MOVLW  F9
00806:  MOVWF  FCB
....................      
....................     // Setup CCP1 as hardware PWM (MOTOR_PWMA - Left motor on RC2) 
....................     setup_ccp1(CCP_PWM); 
00808:  BCF    F94.2
0080A:  BCF    F8B.2
0080C:  MOVLW  0C
0080E:  MOVWF  FBD
....................      
....................     // RC3 (MOTOR_PWMB) configured as digital output for software PWM 
....................     // (CCP2 disabled to avoid conflict) 
....................      
....................     // Initialize direction pins 
....................     output_low(MOTOR_AIN1); 
00810:  BCF    F94.6
00812:  BCF    F8B.6
....................     output_low(MOTOR_BIN1); 
00814:  BCF    F94.7
00816:  BCF    F8B.7
....................      
....................     // Enable motor driver (STBY pin high) 
....................     output_high(MOTOR_STBY); 
00818:  BCF    F93.6
0081A:  BSF    F8A.6
....................      
....................     // Enable Timer2 interrupt for software PWM 
....................     enable_interrupts(INT_TIMER2); 
0081C:  BSF    F9D.1
0081E:  CLRF   17
00820:  BTFSC  FF2.7
00822:  BSF    17.7
00824:  BCF    FF2.7
....................      
....................     // Start with motors stopped 
....................     motor_stop(); 
00826:  RCALL  0314
00828:  BTFSC  17.7
0082A:  BSF    FF2.7
0082C:  GOTO   0832 (RETURN)
.................... } 
....................  
.................... // ============================================================================ 
.................... // SET MOTOR SPEEDS AND DIRECTION 
.................... // ============================================================================ 
.................... void motor_set(int8 left_pwm, int8 right_pwm, int1 direction) { 
....................     // Set direction 
....................     if (direction == DIR_FORWARD) { 
*
002C8:  DECFSZ x67,W
002CA:  BRA    02D6
....................         output_low(MOTOR_AIN1);   // AIN1=0, AIN2=1 (from driver logic) 
002CC:  BCF    F94.6
002CE:  BCF    F8B.6
....................         output_low(MOTOR_BIN1);   // BIN1=0, BIN2=1 
002D0:  BCF    F94.7
002D2:  BCF    F8B.7
....................     } else { 
002D4:  BRA    02DE
....................         output_high(MOTOR_AIN1);  // AIN1=1, AIN2=0 (reverse) 
002D6:  BCF    F94.6
002D8:  BSF    F8B.6
....................         output_high(MOTOR_BIN1);  // BIN1=1, BIN2=0 
002DA:  BCF    F94.7
002DC:  BSF    F8B.7
....................     } 
....................      
....................     // Set left motor PWM (hardware PWM on CCP1) 
....................     // CCS uses 10-bit resolution: scale 8-bit to 10-bit 
....................     set_pwm1_duty((int16)left_pwm * 4); 
002DE:  CLRF   x69
002E0:  MOVFF  65,68
002E4:  RLCF   x68,F
002E6:  RLCF   x69,F
002E8:  RLCF   x68,F
002EA:  RLCF   x69,F
002EC:  MOVLW  FC
002EE:  ANDWF  x68,F
002F0:  RRCF   x69,F
002F2:  RRCF   x68,F
002F4:  RRCF   x69,F
002F6:  RRCF   x68,F
002F8:  RRCF   x69,F
002FA:  MOVFF  68,FBE
002FE:  RRCF   x69,F
00300:  RRCF   x69,W
00302:  ANDLW  30
00304:  MOVWF  00
00306:  MOVF   FBD,W
00308:  ANDLW  CF
0030A:  IORWF  00,W
0030C:  MOVWF  FBD
....................      
....................     // Set right motor PWM (software PWM via Timer2 interrupt) 
....................     // Update duty_R directly (0-255 range) 
....................     duty_R = right_pwm; 
0030E:  MOVFF  66,2F
00312:  RETURN 0
.................... } 
....................  
.................... // ============================================================================ 
.................... // GET MOTOR COMMAND FROM LOOKUP TABLE 
.................... // ============================================================================ 
.................... MotorCmd_t motor_get_command(int8 pattern) { 
....................     // Ensure pattern is within valid range (0-7) 
....................     pattern &= 0x07; 
*
00C36:  MOVLW  07
00C38:  ANDWF  4B,F
....................     return motor_table[pattern]; 
00C3A:  MOVF   4B,W
00C3C:  MULLW  03
00C3E:  MOVF   FF3,W
00C40:  CLRF   03
00C42:  MOVFF  FF2,4C
00C46:  BCF    FF2.7
00C48:  CALL   00B6
00C4C:  MOVWF  00
00C4E:  TBLRD*+
00C50:  MOVFF  FF5,01
00C54:  TBLRD*+
00C56:  MOVFF  FF5,02
00C5A:  BTFSC  4C.7
00C5C:  BSF    FF2.7
00C5E:  CLRF   03
00C60:  RETURN 0
.................... } 
....................  
.................... // ============================================================================ 
.................... // MOTOR STOP 
.................... // ============================================================================ 
.................... void motor_stop(void) { 
....................     motor_set(STOP_PWM, STOP_PWM, DIR_FORWARD); 
*
00314:  CLRF   x65
00316:  CLRF   x66
00318:  MOVLW  01
0031A:  MOVWF  x67
0031C:  RCALL  02C8
0031E:  RETURN 0
.................... } 
....................  
.................... // ============================================================================ 
.................... // MOTOR FORWARD 
.................... // ============================================================================ 
.................... void motor_forward(int8 speed) { 
....................     motor_set(speed, speed, DIR_FORWARD); 
*
0054E:  MOVFF  64,65
00552:  MOVFF  64,66
00556:  MOVLW  01
00558:  MOVWF  x67
0055A:  RCALL  02C8
0055C:  RETURN 0
.................... } 
....................  
.................... // ============================================================================ 
.................... // MOTOR REVERSE 
.................... // ============================================================================ 
.................... void motor_reverse(int8 speed) { 
....................     motor_set(speed, speed, DIR_REVERSE); 
*
0048A:  MOVFF  64,65
0048E:  MOVFF  64,66
00492:  CLRF   x67
00494:  RCALL  02C8
00496:  RETURN 0
.................... } 
....................  
.................... // ============================================================================ 
.................... // TURN RIGHT (while moving forward) 
.................... // ============================================================================ 
.................... void motor_turn_right(int8 speed) { 
....................     motor_set(speed, speed/2, DIR_FORWARD); 
.................... } 
....................  
.................... // ============================================================================ 
.................... // TURN LEFT (while moving forward) 
.................... // ============================================================================ 
.................... void motor_turn_left(int8 speed) { 
....................     motor_set(speed/2, speed, DIR_FORWARD); 
.................... } 
....................  
.................... // ============================================================================ 
.................... // PIVOT RIGHT (turn in place) 
.................... // ============================================================================ 
.................... void motor_pivot_right(int8 speed) { 
....................     // Left forward, right reverse 
....................     set_pwm1_duty((int16)speed * 4); 
*
004A8:  CLRF   x66
004AA:  MOVFF  64,65
004AE:  RLCF   x65,F
004B0:  RLCF   x66,F
004B2:  RLCF   x65,F
004B4:  RLCF   x66,F
004B6:  MOVLW  FC
004B8:  ANDWF  x65,F
004BA:  RRCF   x66,F
004BC:  RRCF   x65,F
004BE:  RRCF   x66,F
004C0:  RRCF   x65,F
004C2:  RRCF   x66,F
004C4:  MOVFF  65,FBE
004C8:  RRCF   x66,F
004CA:  RRCF   x66,W
004CC:  ANDLW  30
004CE:  MOVWF  00
004D0:  MOVF   FBD,W
004D2:  ANDLW  CF
004D4:  IORWF  00,W
004D6:  MOVWF  FBD
....................     duty_R = speed; 
004D8:  MOVFF  64,2F
....................     output_low(MOTOR_AIN1);    // Left forward 
004DC:  BCF    F94.6
004DE:  BCF    F8B.6
....................     output_high(MOTOR_BIN1);   // Right reverse 
004E0:  BCF    F94.7
004E2:  BSF    F8B.7
004E4:  RETURN 0
.................... } 
....................  
.................... // ============================================================================ 
.................... // PIVOT LEFT (turn in place) 
.................... // ============================================================================ 
.................... void motor_pivot_left(int8 speed) { 
....................     // Left reverse, right forward 
....................     set_pwm1_duty((int16)speed * 4); 
004E6:  CLRF   x66
004E8:  MOVFF  64,65
004EC:  RLCF   x65,F
004EE:  RLCF   x66,F
004F0:  RLCF   x65,F
004F2:  RLCF   x66,F
004F4:  MOVLW  FC
004F6:  ANDWF  x65,F
004F8:  RRCF   x66,F
004FA:  RRCF   x65,F
004FC:  RRCF   x66,F
004FE:  RRCF   x65,F
00500:  RRCF   x66,F
00502:  MOVFF  65,FBE
00506:  RRCF   x66,F
00508:  RRCF   x66,W
0050A:  ANDLW  30
0050C:  MOVWF  00
0050E:  MOVF   FBD,W
00510:  ANDLW  CF
00512:  IORWF  00,W
00514:  MOVWF  FBD
....................     duty_R = speed; 
00516:  MOVFF  64,2F
....................     output_high(MOTOR_AIN1);   // Left reverse 
0051A:  BCF    F94.6
0051C:  BSF    F8B.6
....................     output_low(MOTOR_BIN1);    // Right forward 
0051E:  BCF    F94.7
00520:  BCF    F8B.7
00522:  RETURN 0
.................... } 
....................  
.................... // ============================================================================ 
.................... // ENABLE MOTOR DRIVER 
.................... // ============================================================================ 
.................... void motor_enable(void) { 
....................     output_high(MOTOR_STBY); 
*
00464:  BCF    F93.6
00466:  BSF    F8A.6
00468:  RETURN 0
.................... } 
....................  
.................... // ============================================================================ 
.................... // DISABLE MOTOR DRIVER 
.................... // ============================================================================ 
.................... void motor_disable(void) { 
....................     output_low(MOTOR_STBY); 
*
011CA:  BCF    F93.6
011CC:  BCF    F8A.6
011CE:  CLRF   17
011D0:  BTFSC  FF2.7
011D2:  BSF    17.7
011D4:  BCF    FF2.7
....................     motor_stop(); 
011D6:  CALL   0314
011DA:  BTFSC  17.7
011DC:  BSF    FF2.7
011DE:  GOTO   1200 (RETURN)
.................... } 
....................  
....................  
.................... #include "ultrasonic.c" 
.................... //////////////////////////////////////////////////////////////////////////////// 
.................... // FILE: ultrasonic.c 
.................... // DESC: Ultrasonic HC-SR04 sensor implementation 
.................... //////////////////////////////////////////////////////////////////////////////// 
....................  
.................... #include "main.h" 
.................... //////////////////////////////////////////////////////////////////////////////// 
.................... // FILE: main.h 
.................... // DESC: Main header file with standard libraries and global definitions 
.................... //////////////////////////////////////////////////////////////////////////////// 
....................  
.................... #ifndef MAIN_H 
.................... #define MAIN_H 
....................  
.................... // Include hardware configuration first 
.................... #include "config.h" 
....................  
.................... // Include subsystem headers 
.................... #include "fsm.h" 
.................... #include "motor.h" 
.................... #include "sensors.h" 
.................... #include "ultrasonic.h" 
....................  
.................... // Standard includes 
.................... #include <stdint.h> 
.................... #include <stdbool.h> 
....................  
.................... // ============================================================================ 
.................... // GLOBAL TIMING VARIABLES (volatile - modified in ISR) 
.................... // ============================================================================ 
.................... extern volatile int32 ms_tick;        // System millisecond counter 
.................... extern volatile int16 led_tick;       // LED blink counter 
.................... extern volatile int1 led2_blink_enable;  // Enable LED2 blinking 
.................... extern volatile int8 led2_blink_count;   // Count LED2 blinks 
.................... extern volatile int1 programming_mode;   // Programming mode flag 
.................... extern volatile int16 led1_blink_tick;   // LED1 blink counter for programming mode 
....................  
.................... // ============================================================================ 
.................... // GLOBAL BUTTON FLAGS (volatile - modified in ISR) 
.................... // ============================================================================ 
.................... extern volatile int1 system_enabled;     // System ON/OFF state (RB7) 
.................... extern volatile int1 stop_pressed;       // STOP button - checkpoint logic (RB0) 
.................... extern volatile int1 run_pressed;        // RUN button - start from checkpoint (RB1) 
.................... extern volatile int1 cp1_long_press;     // Flag nh?n gi? STOP 
....................  
.................... // ============================================================================ 
.................... // FUNCTION PROTOTYPES 
.................... // ============================================================================ 
....................  
.................... // System initialization 
.................... void system_init(void); 
.................... void gpio_init(void); 
.................... void timers_init(void); 
.................... void pwm_init(void); 
.................... void interrupts_init(void); 
....................  
.................... // Peripheral control 
.................... void peripherals_grab_ball(void); 
.................... void peripherals_release_ball(void); 
....................  
.................... // Programming mode control 
.................... void enter_programming_mode(void); 
.................... void exit_programming_mode(void); 
.................... int1 is_programming_mode(void); 
....................  
.................... // Checkpoint button handling 
.................... void handle_checkpoint_buttons(void); 
....................  
.................... // Utility functions 
.................... void delay_ms_nonblocking(int16 ms); 
.................... int1 check_timeout(int32 start_time, int32 timeout_ms); 
.................... int32 get_ms_tick(void); 
....................  
.................... #endif // MAIN_H 
....................  
....................  
....................  
.................... // ============================================================================ 
.................... // ULTRASONIC INITIALIZATION 
.................... // ============================================================================ 
.................... void ultrasonic_init(void) { 
....................     // Configure pins 
....................     output_low(ULTRA_TRIG);    // Trigger pin as output, initial low 
*
007E2:  BCF    F93.4
007E4:  BCF    F8A.4
007E6:  GOTO   084A (RETURN)
.................... } 
....................  
.................... // ============================================================================ 
.................... // TRIGGER PULSE GENERATION 
.................... // Generate 10us pulse on trigger pin 
.................... // ============================================================================ 
.................... void ultrasonic_trigger(void) { 
....................     output_low(ULTRA_TRIG); 
*
00A8E:  BCF    F93.4
00A90:  BCF    F8A.4
....................     delay_us(2); 
00A92:  MOVLW  02
00A94:  MOVWF  00
00A96:  DECFSZ 00,F
00A98:  BRA    0A96
00A9A:  BRA    0A9C
00A9C:  NOP   
....................     output_high(ULTRA_TRIG); 
00A9E:  BCF    F93.4
00AA0:  BSF    F8A.4
....................     delay_us(10); 
00AA2:  MOVLW  10
00AA4:  MOVWF  00
00AA6:  DECFSZ 00,F
00AA8:  BRA    0AA6
00AAA:  NOP   
....................     output_low(ULTRA_TRIG); 
00AAC:  BCF    F93.4
00AAE:  BCF    F8A.4
00AB0:  RETURN 0
.................... } 
....................  
.................... // ============================================================================ 
.................... // MEASURE ECHO PULSE WIDTH 
.................... // Returns pulse width in microseconds 
.................... // Timer1 runs continuously, just reset when measuring 
.................... // ============================================================================ 
.................... int16 ultrasonic_measure_pulse(void) { 
*
00AF4:  CLRF   51
00AF6:  CLRF   50
00AF8:  CLRF   4F
00AFA:  CLRF   4E
00AFC:  CLRF   53
00AFE:  CLRF   52
....................     int32 timeout_counter = 0; 
....................     int16 pulse_width = 0; 
....................      
....................     // Wait for echo to go high (with timeout) 
....................     timeout_counter = 0; 
00B00:  CLRF   51
00B02:  CLRF   50
00B04:  CLRF   4F
00B06:  CLRF   4E
....................     while (!input(ULTRA_ECHO)) { 
00B08:  BSF    F93.5
00B0A:  BTFSC  F81.5
00B0C:  BRA    0B46
....................         delay_us(1); 
00B0E:  BRA    0B10
00B10:  BRA    0B12
00B12:  NOP   
....................         timeout_counter++; 
00B14:  MOVLW  01
00B16:  ADDWF  4E,F
00B18:  BTFSC  FD8.0
00B1A:  INCF   4F,F
00B1C:  BTFSC  FD8.2
00B1E:  INCF   50,F
00B20:  BTFSC  FD8.2
00B22:  INCF   51,F
....................         if (timeout_counter > ULTRA_TIMEOUT) { 
00B24:  MOVF   51,F
00B26:  BNZ   0B3C
00B28:  MOVF   50,F
00B2A:  BNZ   0B3C
00B2C:  MOVF   4F,W
00B2E:  SUBLW  74
00B30:  BC    0B44
00B32:  XORLW  FF
00B34:  BNZ   0B3C
00B36:  MOVF   4E,W
00B38:  SUBLW  30
00B3A:  BC    0B44
....................             return 0;  // Timeout - no echo 
00B3C:  MOVLW  00
00B3E:  MOVWF  01
00B40:  MOVWF  02
00B42:  BRA    0BB8
....................         } 
00B44:  BRA    0B08
....................     } 
....................      
....................     // Reset Timer1 to measure pulse width 
....................     // Timer1 already running from timers_init() 
....................     set_timer1(0); 
00B46:  CLRF   FCF
00B48:  CLRF   FCE
....................      
....................     // Wait for echo to go low (with timeout) 
....................     timeout_counter = 0; 
00B4A:  CLRF   51
00B4C:  CLRF   50
00B4E:  CLRF   4F
00B50:  CLRF   4E
....................     while (input(ULTRA_ECHO)) { 
00B52:  BSF    F93.5
00B54:  BTFSS  F81.5
00B56:  BRA    0B90
....................         delay_us(1); 
00B58:  BRA    0B5A
00B5A:  BRA    0B5C
00B5C:  NOP   
....................         timeout_counter++; 
00B5E:  MOVLW  01
00B60:  ADDWF  4E,F
00B62:  BTFSC  FD8.0
00B64:  INCF   4F,F
00B66:  BTFSC  FD8.2
00B68:  INCF   50,F
00B6A:  BTFSC  FD8.2
00B6C:  INCF   51,F
....................         if (timeout_counter > ULTRA_TIMEOUT) { 
00B6E:  MOVF   51,F
00B70:  BNZ   0B86
00B72:  MOVF   50,F
00B74:  BNZ   0B86
00B76:  MOVF   4F,W
00B78:  SUBLW  74
00B7A:  BC    0B8E
00B7C:  XORLW  FF
00B7E:  BNZ   0B86
00B80:  MOVF   4E,W
00B82:  SUBLW  30
00B84:  BC    0B8E
....................             return 0;  // Timeout - echo stuck high 
00B86:  MOVLW  00
00B88:  MOVWF  01
00B8A:  MOVWF  02
00B8C:  BRA    0BB8
....................         } 
00B8E:  BRA    0B52
....................     } 
....................      
....................     // Read timer value 
....................     int16 ticks = get_timer1(); 
00B90:  MOVF   FCE,W
00B92:  MOVWF  54
00B94:  MOVFF  FCF,55
....................      
....................     // Convert ticks to microseconds 
....................     // At 20MHz with DIV_BY_1: 1 tick = 0.2us 
....................     // So: us = ticks * 0.2 = ticks / 5 
....................     pulse_width = ticks / 5; 
00B98:  MOVFF  55,57
00B9C:  MOVFF  54,56
00BA0:  CLRF   59
00BA2:  MOVLW  05
00BA4:  MOVWF  58
00BA6:  RCALL  0AB2
00BA8:  MOVFF  02,53
00BAC:  MOVFF  01,52
....................      
....................     return pulse_width; 
00BB0:  MOVFF  52,01
00BB4:  MOVFF  53,02
00BB8:  RETURN 0
.................... } 
....................  
.................... // ============================================================================ 
.................... // READ DISTANCE IN CENTIMETERS 
.................... // Speed of sound = 340 m/s = 29.4 us/cm (round trip) 
.................... // Distance (cm) = pulse_width (us) / 58 
.................... // ============================================================================ 
.................... int8 ultrasonic_read_cm(void) { 
....................     ultrasonic_trigger(); 
00BBA:  RCALL  0A8E
....................     delay_us(50);  // Small delay before measurement 
00BBC:  MOVLW  52
00BBE:  MOVWF  00
00BC0:  DECFSZ 00,F
00BC2:  BRA    0BC0
00BC4:  BRA    0BC6
00BC6:  NOP   
....................      
....................     int16 pulse_us = ultrasonic_measure_pulse(); 
00BC8:  RCALL  0AF4
00BCA:  MOVFF  02,4B
00BCE:  MOVFF  01,4A
....................      
....................     if (pulse_us == 0) { 
00BD2:  MOVF   4A,F
00BD4:  BNZ   0BE0
00BD6:  MOVF   4B,F
00BD8:  BNZ   0BE0
....................         return ULTRA_ERROR;  // Timeout or error 
00BDA:  MOVLW  FF
00BDC:  MOVWF  01
00BDE:  BRA    0C0C
....................     } 
....................      
....................     // Calculate distance in cm 
....................     int16 distance_cm = pulse_us / 58; 
00BE0:  MOVFF  4B,57
00BE4:  MOVFF  4A,56
00BE8:  CLRF   59
00BEA:  MOVLW  3A
00BEC:  MOVWF  58
00BEE:  RCALL  0AB2
00BF0:  MOVFF  02,4D
00BF4:  MOVFF  01,4C
....................      
....................     // Limit to 8-bit range 
....................     if (distance_cm > 254) { 
00BF8:  MOVF   4D,F
00BFA:  BNZ   0C02
00BFC:  MOVF   4C,W
00BFE:  SUBLW  FE
00C00:  BC    0C08
....................         return 254; 
00C02:  MOVLW  FE
00C04:  MOVWF  01
00C06:  BRA    0C0C
....................     } 
....................      
....................     return (int8)distance_cm; 
00C08:  MOVFF  4C,01
00C0C:  RETURN 0
.................... } 
....................  
.................... // ============================================================================ 
.................... // READ DISTANCE IN MILLIMETERS (for precise reverse operation) 
.................... // Distance (mm) = pulse_width (us) / 5.8 
.................... // ============================================================================ 
.................... int16 ultrasonic_read_mm(void) { 
....................     ultrasonic_trigger(); 
*
00FDE:  RCALL  0A8E
....................     delay_us(50); 
00FE0:  MOVLW  52
00FE2:  MOVWF  00
00FE4:  DECFSZ 00,F
00FE6:  BRA    0FE4
00FE8:  BRA    0FEA
00FEA:  NOP   
....................      
....................     int16 pulse_us = ultrasonic_measure_pulse(); 
00FEC:  RCALL  0AF4
00FEE:  MOVFF  02,47
00FF2:  MOVFF  01,46
....................      
....................     if (pulse_us == 0) { 
00FF6:  MOVF   46,F
00FF8:  BNZ   1006
00FFA:  MOVF   47,F
00FFC:  BNZ   1006
....................         return 0xFFFF;  // Error value 
00FFE:  MOVLW  FF
01000:  MOVWF  01
01002:  MOVWF  02
01004:  BRA    1074
....................     } 
....................      
....................     // Calculate distance in mm (using fixed-point math) 
....................     // mm = (pulse_us * 10) / 58 
....................     int32 distance_mm = ((int32)pulse_us * 10) / 58; 
01006:  CLRF   4F
01008:  CLRF   4E
0100A:  MOVFF  47,4D
0100E:  MOVFF  46,4C
01012:  MOVFF  4F,53
01016:  MOVFF  4E,52
0101A:  MOVFF  47,51
0101E:  MOVFF  46,50
01022:  CLRF   57
01024:  CLRF   56
01026:  CLRF   55
01028:  MOVLW  0A
0102A:  MOVWF  54
0102C:  BRA    0EFA
0102E:  MOVFF  03,4F
01032:  MOVFF  02,4E
01036:  MOVFF  01,4D
0103A:  MOVFF  00,4C
0103E:  BCF    FD8.1
01040:  MOVFF  03,53
01044:  MOVFF  02,52
01048:  MOVFF  01,51
0104C:  MOVFF  00,50
01050:  CLRF   57
01052:  CLRF   56
01054:  CLRF   55
01056:  MOVLW  3A
01058:  MOVWF  54
0105A:  RCALL  0F50
0105C:  MOVFF  03,4B
01060:  MOVFF  02,4A
01064:  MOVFF  01,49
01068:  MOVFF  00,48
....................      
....................     return (int16)distance_mm; 
0106C:  MOVFF  48,01
01070:  MOVFF  49,02
01074:  GOTO   107A (RETURN)
.................... } 
....................  
.................... // ============================================================================ 
.................... // CHECK IF OBJECT IS CLOSER THAN THRESHOLD 
.................... // ============================================================================ 
.................... int1 ultrasonic_check_close(int8 threshold_cm) { 
....................     int8 distance = ultrasonic_read_cm(); 
....................      
....................     if (distance == ULTRA_ERROR) { 
....................         return FALSE;  // Error - assume not close 
....................     } 
....................      
....................     return (distance <= threshold_cm); 
.................... } 
....................  
....................  
.................... #include "fsm.c" 
.................... //////////////////////////////////////////////////////////////////////////////// 
.................... // FILE: fsm.c 
.................... // DESC: Finite State Machine implementation - 9 states for line follower 
.................... //////////////////////////////////////////////////////////////////////////////// 
....................  
.................... #include "main.h" 
.................... //////////////////////////////////////////////////////////////////////////////// 
.................... // FILE: main.h 
.................... // DESC: Main header file with standard libraries and global definitions 
.................... //////////////////////////////////////////////////////////////////////////////// 
....................  
.................... #ifndef MAIN_H 
.................... #define MAIN_H 
....................  
.................... // Include hardware configuration first 
.................... #include "config.h" 
....................  
.................... // Include subsystem headers 
.................... #include "fsm.h" 
.................... #include "motor.h" 
.................... #include "sensors.h" 
.................... #include "ultrasonic.h" 
....................  
.................... // Standard includes 
.................... #include <stdint.h> 
.................... #include <stdbool.h> 
....................  
.................... // ============================================================================ 
.................... // GLOBAL TIMING VARIABLES (volatile - modified in ISR) 
.................... // ============================================================================ 
.................... extern volatile int32 ms_tick;        // System millisecond counter 
.................... extern volatile int16 led_tick;       // LED blink counter 
.................... extern volatile int1 led2_blink_enable;  // Enable LED2 blinking 
.................... extern volatile int8 led2_blink_count;   // Count LED2 blinks 
.................... extern volatile int1 programming_mode;   // Programming mode flag 
.................... extern volatile int16 led1_blink_tick;   // LED1 blink counter for programming mode 
....................  
.................... // ============================================================================ 
.................... // GLOBAL BUTTON FLAGS (volatile - modified in ISR) 
.................... // ============================================================================ 
.................... extern volatile int1 system_enabled;     // System ON/OFF state (RB7) 
.................... extern volatile int1 stop_pressed;       // STOP button - checkpoint logic (RB0) 
.................... extern volatile int1 run_pressed;        // RUN button - start from checkpoint (RB1) 
.................... extern volatile int1 cp1_long_press;     // Flag nh?n gi? STOP 
....................  
.................... // ============================================================================ 
.................... // FUNCTION PROTOTYPES 
.................... // ============================================================================ 
....................  
.................... // System initialization 
.................... void system_init(void); 
.................... void gpio_init(void); 
.................... void timers_init(void); 
.................... void pwm_init(void); 
.................... void interrupts_init(void); 
....................  
.................... // Peripheral control 
.................... void peripherals_grab_ball(void); 
.................... void peripherals_release_ball(void); 
....................  
.................... // Programming mode control 
.................... void enter_programming_mode(void); 
.................... void exit_programming_mode(void); 
.................... int1 is_programming_mode(void); 
....................  
.................... // Checkpoint button handling 
.................... void handle_checkpoint_buttons(void); 
....................  
.................... // Utility functions 
.................... void delay_ms_nonblocking(int16 ms); 
.................... int1 check_timeout(int32 start_time, int32 timeout_ms); 
.................... int32 get_ms_tick(void); 
....................  
.................... #endif // MAIN_H 
....................  
....................  
....................  
.................... // Tham chi?u d?n bi?n LED2 blink (khai báo trong main.c) 
.................... extern volatile int1 led2_blink_enable; 
.................... extern volatile int8 led2_blink_count; 
....................  
.................... // ============================================================================ 
.................... // GLOBAL FSM VARIABLES 
.................... // ============================================================================ 
.................... volatile SystemState_t current_state = STATE_IDLE; 
.................... volatile SystemState_t previous_state = STATE_IDLE; 
.................... ErrorType_t current_error = ERR_NONE; 
.................... NavDirection_t nav_direction = NAV_STRAIGHT; 
.................... Checkpoint_t current_checkpoint = CP_START;  // B?t d?u t? checkpoint 1 
.................... volatile int1 run_flag = FALSE; 
.................... volatile int1 ball_grabbed = FALSE; 
.................... int8 retry_count = 0; 
....................  
.................... // Bi?n d?m cho checkpoint logic 
.................... static int8 intersection_count = 0;      // Đ?m s? l?n g?p pattern 111 
.................... static int8 right_turn_count = 0;        // Đ?m s? l?n l?ch ph?i 
....................  
.................... // ============================================================================ 
.................... // PRIVATE FSM VARIABLES 
.................... // ============================================================================ 
.................... static int32 state_entry_time = 0;      // Time when state was entered 
.................... static int8 line_lost_counter = 0;      // Counter for consecutive line lost readings 
.................... static int32 nav_start_time = 0;        // Navigation start time 
.................... static int16 reverse_distance_mm = 0;   // Distance traveled in reverse 
.................... static int16 last_mm = 0;               // Last ultrasonic reading for reverse tracking 
.................... static int1 station_detected = FALSE;   // Station proximity flag 
.................... static int1 end_detected = FALSE;       // End point proximity flag 
....................  
.................... #define LINE_LOST_COUNT_MAX 5  // 5 l?n lięn ti?p @ 10ms/loop = 50ms 
....................  
.................... // Pattern definitions for checkpoint logic 
.................... #define PATTERN_INTERSECTION 0x07  // 111 - intersection 
.................... #define PATTERN_RIGHT_LIGHT  0x01  // 001 - l?ch ph?i nh? 
.................... #define PATTERN_RIGHT_HEAVY  0x03  // 011 - l?ch ph?i m?nh 
....................  
.................... // ============================================================================ 
.................... // EEPROM ADDRESSES FOR CHECKPOINT DATA 
.................... // ============================================================================ 
.................... #define EEPROM_CHECKPOINT    0x00  // Current checkpoint 
.................... #define EEPROM_STATE         0x01  // State to resume from 
.................... #define EEPROM_NAV_DIR       0x02  // Navigation direction 
.................... #define EEPROM_BALL_STATUS   0x03  // Ball grabbed status (0/1) 
.................... #define EEPROM_INTERSECT_CNT 0x04  // Intersection counter 
.................... #define EEPROM_RIGHT_CNT     0x05  // Right turn counter 
....................  
.................... // ============================================================================ 
.................... // STATE TRANSITION FUNCTION 
.................... // Handles entry/exit/update lifecycle 
.................... // ============================================================================ 
.................... void fsm_transition(SystemState_t next_state) { 
....................     // Call exit function for current state 
....................     switch (current_state) { 
*
005A8:  MOVF   18,W
005AA:  ADDLW  F6
005AC:  BC    05DA
005AE:  ADDLW  0A
005B0:  GOTO   0626
....................         case STATE_IDLE:           state_idle_exit(); break; 
005B4:  RCALL  0004
005B6:  BRA    05DA
....................         case STATE_FOLLOW_LINE:    state_follow_line_exit(); break; 
005B8:  RCALL  0006
005BA:  BRA    05DA
....................         case STATE_STATION:        state_station_exit(); break; 
005BC:  RCALL  0320
005BE:  BRA    05DA
....................         case STATE_STATION_STOP:   state_station_stop_exit(); break; 
005C0:  RCALL  0324
005C2:  BRA    05DA
....................         case STATE_STATION_BACK:   state_station_back_exit(); break; 
005C4:  RCALL  0326
005C6:  BRA    05DA
....................         case STATE_NAVIGATION:     state_navigation_exit(); break; 
005C8:  RCALL  043E
005CA:  BRA    05DA
....................         case STATE_END:            state_end_exit(); break; 
005CC:  RCALL  044E
005CE:  BRA    05DA
....................         case STATE_END_REVERSE:    state_end_reverse_exit(); break; 
005D0:  RCALL  0450
005D2:  BRA    05DA
....................         case STATE_ERROR:          state_error_exit(); break; 
005D4:  RCALL  0454
005D6:  BRA    05DA
....................         case STATE_CHECKPOINT:     state_checkpoint_exit(); break; 
005D8:  RCALL  045C
....................     } 
....................      
....................     // Update states 
....................     previous_state = current_state; 
005DA:  MOVFF  18,19
....................     current_state = next_state; 
005DE:  MOVFF  63,18
....................     state_entry_time = ms_tick; 
005E2:  MOVFF  22,36
005E6:  MOVFF  21,35
005EA:  MOVFF  20,34
005EE:  MOVFF  1F,33
....................      
....................     // Call entry function for new state 
....................     switch (next_state) { 
005F2:  MOVF   x63,W
005F4:  ADDLW  F6
005F6:  BC    0624
005F8:  ADDLW  0A
005FA:  GOTO   066C
....................         case STATE_IDLE:           state_idle_entry(); break; 
005FE:  RCALL  045E
00600:  BRA    0624
....................         case STATE_FOLLOW_LINE:    state_follow_line_entry(); break; 
00602:  RCALL  046A
00604:  BRA    0624
....................         case STATE_STATION:        state_station_entry(); break; 
00606:  RCALL  0470
00608:  BRA    0624
....................         case STATE_STATION_STOP:   state_station_stop_entry(); break; 
0060A:  RCALL  0484
0060C:  BRA    0624
....................         case STATE_STATION_BACK:   state_station_back_entry(); break; 
0060E:  RCALL  0498
00610:  BRA    0624
....................         case STATE_NAVIGATION:     state_navigation_entry(); break; 
00612:  RCALL  0524
00614:  BRA    0624
....................         case STATE_END:            state_end_entry(); break; 
00616:  RCALL  057E
00618:  BRA    0624
....................         case STATE_END_REVERSE:    state_end_reverse_entry(); break; 
0061A:  RCALL  0598
0061C:  BRA    0624
....................         case STATE_ERROR:          state_error_entry(); break; 
0061E:  RCALL  05A0
00620:  BRA    0624
....................         case STATE_CHECKPOINT:     state_checkpoint_entry(); break; 
00622:  RCALL  05A4
....................     } 
00624:  RETURN 0
.................... } 
....................  
.................... // ============================================================================ 
.................... // STATE: IDLE 
.................... // Waiting for RUN button press 
.................... // ============================================================================ 
.................... void state_idle_entry(void) { 
....................     motor_stop(); 
*
0045E:  RCALL  0314
....................     // LED1 không du?c t?t ? IDLE - ch? t?t khi system OFF ho?c END hoŕn thŕnh 
....................     run_flag = FALSE; 
00460:  BCF    1D.0
00462:  RETURN 0
.................... } 
....................  
.................... void state_idle_update(void) { 
....................     // Only respond to RUN button if system is enabled 
....................     if (system_enabled && run_pressed) { 
*
00A5C:  BTFSS  1D.3
00A5E:  BRA    0A78
00A60:  BTFSS  1D.5
00A62:  BRA    0A78
....................         run_pressed = FALSE; 
00A64:  BCF    1D.5
00A66:  CLRF   17
00A68:  BTFSC  FF2.7
00A6A:  BSF    17.7
00A6C:  BCF    FF2.7
....................         fsm_transition(STATE_FOLLOW_LINE); 
00A6E:  MOVLW  01
00A70:  MOVWF  x63
00A72:  RCALL  05A8
00A74:  BTFSC  17.7
00A76:  BSF    FF2.7
....................     } 
00A78:  GOTO   1536 (RETURN)
.................... } 
....................  
.................... void state_idle_exit(void) { 
*
00004:  RETURN 0
....................     // LED1 dă sáng t? khi b?t ngu?n - không c?n b?t l?i 
.................... } 
....................  
.................... // ============================================================================ 
.................... // STATE: FOLLOW_LINE 
.................... // Normal line following mode 
.................... // ============================================================================ 
.................... void state_follow_line_entry(void) { 
....................     motor_enable(); 
*
0046A:  RCALL  0464
....................     line_lost_counter = 0; 
0046C:  CLRF   37
0046E:  RETURN 0
.................... } 
....................  
.................... void state_follow_line_update(void) { 
....................     int8 pattern; 
....................     int8 distance; 
....................     MotorCmd_t cmd; 
....................  
....................     pattern = sensors_read_filtered(); 
*
00C7A:  CALL   01E2
00C7E:  MOVFF  01,44
....................      
....................     // Checkpoint logic - d?m pattern 111 vŕ l?ch ph?i 
....................     if (current_checkpoint >= CP_AFTER_NAVIGATION) { 
00C82:  MOVF   1C,W
00C84:  SUBLW  01
00C86:  BC    0CC2
....................         if (pattern == PATTERN_INTERSECTION) { 
00C88:  MOVF   44,W
00C8A:  SUBLW  07
00C8C:  BNZ   0C90
....................             intersection_count++; 
00C8E:  INCF   31,F
....................         } 
....................         if (pattern == PATTERN_RIGHT_LIGHT || pattern == PATTERN_RIGHT_HEAVY) { 
00C90:  DECFSZ 44,W
00C92:  BRA    0C96
00C94:  BRA    0C9C
00C96:  MOVF   44,W
00C98:  SUBLW  03
00C9A:  BNZ   0C9E
....................             right_turn_count++; 
00C9C:  INCF   32,F
....................         } 
....................          
....................         // Sau khi x? lý d? pattern ? checkpoint g?n END 
....................         if (intersection_count >= 1 && right_turn_count >= 2) { 
00C9E:  MOVF   31,W
00CA0:  SUBLW  00
00CA2:  BC    0CC2
00CA4:  MOVF   32,W
00CA6:  SUBLW  01
00CA8:  BC    0CC2
00CAA:  CLRF   17
00CAC:  BTFSC  FF2.7
00CAE:  BSF    17.7
00CB0:  BCF    FF2.7
....................             fsm_save_checkpoint(CP_BEFORE_END); 
00CB2:  MOVLW  03
00CB4:  MOVWF  x64
00CB6:  CALL   032A
00CBA:  BTFSC  17.7
00CBC:  BSF    FF2.7
....................             intersection_count = 0;  // Reset counters 
00CBE:  CLRF   31
....................             right_turn_count = 0; 
00CC0:  CLRF   32
....................         } 
....................     } 
....................      
....................     // Check for intersection 
....................     if (sensors_is_intersection(pattern)) { 
00CC2:  MOVFF  44,4A
00CC6:  BRA    0A7C
00CC8:  MOVF   01,F
00CCA:  BZ    0CF4
00CCC:  CLRF   17
00CCE:  BTFSC  FF2.7
00CD0:  BSF    17.7
00CD2:  BCF    FF2.7
....................         motor_forward(BASE_PWM); 
00CD4:  MOVLW  A0
00CD6:  MOVWF  x64
00CD8:  RCALL  054E
00CDA:  BTFSC  17.7
00CDC:  BSF    FF2.7
00CDE:  CLRF   17
00CE0:  BTFSC  FF2.7
00CE2:  BSF    17.7
00CE4:  BCF    FF2.7
....................         delay_ms(CROSS_DELAY_MS); 
00CE6:  MOVLW  96
00CE8:  MOVWF  x65
00CEA:  CALL   02A2
00CEE:  BTFSC  17.7
00CF0:  BSF    FF2.7
....................         return; 
00CF2:  BRA    0E5E
....................     } 
....................      
....................     // Read ultrasonic 
....................     distance = ultrasonic_read_cm(); 
00CF4:  RCALL  0BBA
00CF6:  MOVFF  01,45
....................      
....................     // T-junction x? lý 
....................     if (sensors_is_tjunction(pattern)) { 
00CFA:  MOVFF  44,4A
00CFE:  BRA    0C0E
00D00:  MOVF   01,F
00D02:  BZ    0D46
....................         if (distance != ULTRA_ERROR && distance <= (STOP_CM_STATION + 3) && !ball_grabbed) { 
00D04:  INCFSZ 45,W
00D06:  BRA    0D0A
00D08:  BRA    0D2E
00D0A:  MOVF   45,W
00D0C:  SUBLW  05
00D0E:  BNC   0D2E
00D10:  BTFSC  1D.1
00D12:  BRA    0D2E
....................             station_detected = TRUE; 
00D14:  BSF    2E.3
....................             nav_direction = NAV_RIGHT; 
00D16:  MOVLW  01
00D18:  MOVWF  1B
00D1A:  CLRF   17
00D1C:  BTFSC  FF2.7
00D1E:  BSF    17.7
00D20:  BCF    FF2.7
....................             fsm_transition(STATE_STATION); 
00D22:  MOVLW  02
00D24:  MOVWF  x63
00D26:  RCALL  05A8
00D28:  BTFSC  17.7
00D2A:  BSF    FF2.7
....................             return; 
00D2C:  BRA    0E5E
....................         } 
....................  
....................         nav_direction = NAV_RIGHT; 
00D2E:  MOVLW  01
00D30:  MOVWF  1B
00D32:  CLRF   17
00D34:  BTFSC  FF2.7
00D36:  BSF    17.7
00D38:  BCF    FF2.7
....................         fsm_transition(STATE_NAVIGATION); 
00D3A:  MOVLW  05
00D3C:  MOVWF  x63
00D3E:  RCALL  05A8
00D40:  BTFSC  17.7
00D42:  BSF    FF2.7
....................         return; 
00D44:  BRA    0E5E
....................     } 
....................      
....................     // END detection 
....................     if (distance != ULTRA_ERROR && distance <= STOP_CM_END && ball_grabbed) { 
00D46:  INCFSZ 45,W
00D48:  BRA    0D4C
00D4A:  BRA    0D6C
00D4C:  MOVF   45,W
00D4E:  SUBLW  05
00D50:  BNC   0D6C
00D52:  BTFSS  1D.1
00D54:  BRA    0D6C
....................         end_detected = TRUE; 
00D56:  BSF    2E.4
00D58:  CLRF   17
00D5A:  BTFSC  FF2.7
00D5C:  BSF    17.7
00D5E:  BCF    FF2.7
....................         fsm_transition(STATE_END); 
00D60:  MOVLW  06
00D62:  MOVWF  x63
00D64:  RCALL  05A8
00D66:  BTFSC  17.7
00D68:  BSF    FF2.7
....................         return; 
00D6A:  BRA    0E5E
....................     } 
....................      
....................     // Line lost 
....................     if (sensors_is_lost(pattern)) { 
00D6C:  MOVFF  44,4A
00D70:  BRA    0C20
00D72:  MOVF   01,F
00D74:  BZ    0E28
....................         line_lost_counter++; 
00D76:  INCF   37,F
....................          
....................         if (line_lost_counter >= LINE_LOST_COUNT_MAX) { 
00D78:  MOVF   37,W
00D7A:  SUBLW  04
00D7C:  BC    0DD4
....................             // Th? gi?m t?c tru?c khi báo l?i 
....................             if (line_lost_counter < LINE_LOST_COUNT_MAX + 10) { 
00D7E:  MOVF   37,W
00D80:  SUBLW  0E
00D82:  BNC   0DCC
....................                 cmd = motor_get_command(sensors_get_last_valid()); 
00D84:  RCALL  0C30
00D86:  MOVFF  01,4A
00D8A:  MOVFF  01,4B
00D8E:  RCALL  0C36
00D90:  MOVFF  03,48
00D94:  MOVFF  02,47
00D98:  MOVFF  01,46
....................                 motor_set(cmd.left_pwm / 2, cmd.right_pwm / 2, cmd.direction); 
00D9C:  BCF    FD8.0
00D9E:  RRCF   46,W
00DA0:  MOVWF  4A
00DA2:  BCF    FD8.0
00DA4:  RRCF   47,W
00DA6:  MOVWF  4B
00DA8:  MOVLW  00
00DAA:  BTFSC  48.0
00DAC:  MOVLW  01
00DAE:  MOVWF  4C
00DB0:  CLRF   17
00DB2:  BTFSC  FF2.7
00DB4:  BSF    17.7
00DB6:  BCF    FF2.7
00DB8:  MOVFF  4A,65
00DBC:  MOVFF  4B,66
00DC0:  MOVWF  x67
00DC2:  CALL   02C8
00DC6:  BTFSC  17.7
00DC8:  BSF    FF2.7
....................             } else { 
00DCA:  BRA    0DD2
....................                 fsm_handle_error(ERR_LOST_LINE); 
00DCC:  MOVLW  01
00DCE:  MOVWF  4A
00DD0:  RCALL  0C62
....................             } 
....................             return; 
00DD2:  BRA    0E5E
....................         } 
....................          
....................         // Duy trě hu?ng cu v?i t?c d? gi?m d?n 
....................         cmd = motor_get_command(sensors_get_last_valid()); 
00DD4:  RCALL  0C30
00DD6:  MOVFF  01,4A
00DDA:  MOVFF  01,4B
00DDE:  RCALL  0C36
00DE0:  MOVFF  03,48
00DE4:  MOVFF  02,47
00DE8:  MOVFF  01,46
....................         int8 speed_factor = (LINE_LOST_COUNT_MAX - line_lost_counter) * 20; 
00DEC:  MOVLW  05
00DEE:  BSF    FD8.0
00DF0:  SUBFWB 37,W
00DF2:  MULLW  14
00DF4:  MOVFF  FF3,49
....................         motor_set(cmd.left_pwm - speed_factor,  
....................                   cmd.right_pwm - speed_factor,  
....................                   cmd.direction); 
00DF8:  MOVF   49,W
00DFA:  SUBWF  46,W
00DFC:  MOVWF  4A
00DFE:  MOVF   49,W
00E00:  SUBWF  47,W
00E02:  MOVWF  4B
00E04:  MOVLW  00
00E06:  BTFSC  48.0
00E08:  MOVLW  01
00E0A:  MOVWF  4C
00E0C:  CLRF   17
00E0E:  BTFSC  FF2.7
00E10:  BSF    17.7
00E12:  BCF    FF2.7
00E14:  MOVFF  4A,65
00E18:  MOVFF  4B,66
00E1C:  MOVWF  x67
00E1E:  CALL   02C8
00E22:  BTFSC  17.7
00E24:  BSF    FF2.7
....................         return; 
00E26:  BRA    0E5E
....................     } 
....................      
....................     line_lost_counter = 0;  // Reset khi těm l?i line 
00E28:  CLRF   37
....................  
....................     // Normal follow 
....................     cmd = motor_get_command(pattern); 
00E2A:  MOVFF  44,4B
00E2E:  RCALL  0C36
00E30:  MOVFF  03,48
00E34:  MOVFF  02,47
00E38:  MOVFF  01,46
....................     motor_set(cmd.left_pwm, cmd.right_pwm, cmd.direction); 
00E3C:  MOVLW  00
00E3E:  BTFSC  48.0
00E40:  MOVLW  01
00E42:  MOVWF  4A
00E44:  CLRF   17
00E46:  BTFSC  FF2.7
00E48:  BSF    17.7
00E4A:  BCF    FF2.7
00E4C:  MOVFF  46,65
00E50:  MOVFF  47,66
00E54:  MOVWF  x67
00E56:  CALL   02C8
00E5A:  BTFSC  17.7
00E5C:  BSF    FF2.7
00E5E:  GOTO   1536 (RETURN)
.................... } 
....................  
.................... void state_follow_line_exit(void) { 
*
00006:  RETURN 0
....................     // Nothing to clean up 
.................... } 
....................  
.................... // ============================================================================ 
.................... // STATE: STATION 
.................... // Approaching ball pickup station 
.................... // ============================================================================ 
.................... void state_station_entry(void) { 
....................     motor_set(SLOW_PWM, SLOW_PWM, DIR_FORWARD);  // Slow down 
*
00470:  MOVLW  50
00472:  MOVWF  x65
00474:  MOVWF  x66
00476:  MOVLW  01
00478:  MOVWF  x67
0047A:  RCALL  02C8
0047C:  RETURN 0
.................... } 
....................  
.................... void state_station_update(void) { 
....................     int8 distance; 
....................  
....................     distance = ultrasonic_read_cm(); 
*
00E62:  RCALL  0BBA
00E64:  MOVFF  01,44
....................      
....................     if (distance != ULTRA_ERROR && distance <= STOP_CM_STATION) { 
00E68:  INCFSZ 44,W
00E6A:  BRA    0E6E
00E6C:  BRA    0E8A
00E6E:  MOVF   44,W
00E70:  SUBLW  02
00E72:  BNC   0E8A
00E74:  CLRF   17
00E76:  BTFSC  FF2.7
00E78:  BSF    17.7
00E7A:  BCF    FF2.7
....................         fsm_transition(STATE_STATION_STOP); 
00E7C:  MOVLW  03
00E7E:  MOVWF  x63
00E80:  CALL   05A8
00E84:  BTFSC  17.7
00E86:  BSF    FF2.7
....................         return; 
00E88:  BRA    0EA4
00E8A:  CLRF   17
00E8C:  BTFSC  FF2.7
00E8E:  BSF    17.7
00E90:  BCF    FF2.7
....................     } 
....................      
....................     motor_set(SLOW_PWM, SLOW_PWM, DIR_FORWARD); 
00E92:  MOVLW  50
00E94:  MOVWF  x65
00E96:  MOVWF  x66
00E98:  MOVLW  01
00E9A:  MOVWF  x67
00E9C:  CALL   02C8
00EA0:  BTFSC  17.7
00EA2:  BSF    FF2.7
00EA4:  GOTO   1536 (RETURN)
.................... } 
....................  
.................... void state_station_exit(void) { 
....................     motor_stop(); 
*
00320:  RCALL  0314
00322:  RETURN 0
.................... } 
....................  
.................... // ============================================================================ 
.................... // STATE: STATION_STOP 
.................... // Stopped at station, grabbing ball 
.................... // ============================================================================ 
.................... void state_station_stop_entry(void) { 
....................     motor_stop(); 
*
00484:  RCALL  0314
....................     peripherals_grab_ball();  // Activate grabber 
00486:  RCALL  047E
00488:  RETURN 0
.................... } 
....................  
.................... void state_station_stop_update(void) { 
....................     // Ch? th?i gian co c?u l?y bi ho?t d?ng (2 giây) 
....................     if ((ms_tick - state_entry_time) >= GRAB_MS) { 
*
00EA8:  MOVF   33,W
00EAA:  SUBWF  1F,W
00EAC:  MOVWF  44
00EAE:  MOVF   34,W
00EB0:  SUBWFB 20,W
00EB2:  MOVWF  45
00EB4:  MOVF   35,W
00EB6:  SUBWFB 21,W
00EB8:  MOVWF  46
00EBA:  MOVF   36,W
00EBC:  SUBWFB 22,W
00EBE:  MOVWF  47
00EC0:  MOVF   47,F
00EC2:  BNZ   0ED8
00EC4:  MOVF   46,F
00EC6:  BNZ   0ED8
00EC8:  MOVF   45,W
00ECA:  SUBLW  06
00ECC:  BC    0EF6
00ECE:  XORLW  FF
00ED0:  BNZ   0ED8
00ED2:  MOVF   44,W
00ED4:  SUBLW  CF
00ED6:  BC    0EF6
....................         ball_grabbed = TRUE;  // Set flag sau khi co c?u ho?t d?ng xong 
00ED8:  BSF    1D.1
....................          
....................         // B?t d?u nháy LED2 d? báo hi?u l?y bi thŕnh công 
....................         led2_blink_enable = TRUE; 
00EDA:  BSF    1D.2
....................         led2_blink_count = 0; 
00EDC:  CLRF   25
....................          
....................         nav_direction = NAV_RIGHT;  // Set hu?ng tru?c khi chuy?n state 
00EDE:  MOVLW  01
00EE0:  MOVWF  1B
00EE2:  CLRF   17
00EE4:  BTFSC  FF2.7
00EE6:  BSF    17.7
00EE8:  BCF    FF2.7
....................         fsm_transition(STATE_STATION_BACK); 
00EEA:  MOVLW  04
00EEC:  MOVWF  x63
00EEE:  CALL   05A8
00EF2:  BTFSC  17.7
00EF4:  BSF    FF2.7
....................     } 
00EF6:  GOTO   1536 (RETURN)
.................... } 
....................  
.................... void state_station_stop_exit(void) { 
*
00324:  RETURN 0
....................     // Ball is grabbed, LED2 will blink via ISR 
.................... } 
....................  
.................... // ============================================================================ 
.................... // STATE: STATION_BACK 
.................... // Reversing from station (250mm) 
.................... // ============================================================================ 
.................... void state_station_back_entry(void) { 
....................     reverse_distance_mm = 0; 
*
00498:  CLRF   3D
0049A:  CLRF   3C
....................     last_mm = 0;  // Reset tracking variable 
0049C:  CLRF   3F
0049E:  CLRF   3E
....................     motor_reverse(SLOW_PWM); 
004A0:  MOVLW  50
004A2:  MOVWF  x64
004A4:  RCALL  048A
004A6:  RETURN 0
.................... } 
....................  
.................... void state_station_back_update(void) { 
....................     int16 current_mm; 
....................  
....................     current_mm = ultrasonic_read_mm(); 
*
01078:  BRA    0FDE
0107A:  MOVFF  02,45
0107E:  MOVFF  01,44
....................      
....................     if (last_mm == 0) { 
01082:  MOVF   3E,F
01084:  BNZ   1092
01086:  MOVF   3F,F
01088:  BNZ   1092
....................         last_mm = current_mm; 
0108A:  MOVFF  45,3F
0108E:  MOVFF  44,3E
....................     } 
....................      
....................     if (current_mm != 0xFFFF && current_mm > last_mm) { 
01092:  INCFSZ 44,W
01094:  BRA    109C
01096:  INCFSZ 45,W
01098:  BRA    109C
0109A:  BRA    10C6
0109C:  MOVF   3F,W
0109E:  SUBWF  45,W
010A0:  BNC   10C6
010A2:  BNZ   10AA
010A4:  MOVF   44,W
010A6:  SUBWF  3E,W
010A8:  BC    10C6
....................         reverse_distance_mm += (current_mm - last_mm); 
010AA:  MOVF   3E,W
010AC:  SUBWF  44,W
010AE:  MOVWF  00
010B0:  MOVF   3F,W
010B2:  SUBWFB 45,W
010B4:  MOVWF  03
010B6:  MOVF   00,W
010B8:  ADDWF  3C,F
010BA:  MOVF   03,W
010BC:  ADDWFC 3D,F
....................         last_mm = current_mm; 
010BE:  MOVFF  45,3F
010C2:  MOVFF  44,3E
....................     } 
....................      
....................     if (reverse_distance_mm >= REVERSE_MM) { 
010C6:  MOVF   3D,F
010C8:  BNZ   10D0
010CA:  MOVF   3C,W
010CC:  SUBLW  F9
010CE:  BC    10E8
....................         last_mm = 0; 
010D0:  CLRF   3F
010D2:  CLRF   3E
010D4:  CLRF   17
010D6:  BTFSC  FF2.7
010D8:  BSF    17.7
010DA:  BCF    FF2.7
....................         fsm_transition(STATE_NAVIGATION); 
010DC:  MOVLW  05
010DE:  MOVWF  x63
010E0:  CALL   05A8
010E4:  BTFSC  17.7
010E6:  BSF    FF2.7
....................     } 
010E8:  GOTO   1536 (RETURN)
.................... } 
....................  
.................... void state_station_back_exit(void) { 
....................     motor_stop(); 
*
00326:  RCALL  0314
00328:  RETURN 0
.................... } 
....................  
.................... // ============================================================================ 
.................... // STATE: NAVIGATION 
.................... // Turning at junction (pivot turn right) 
.................... // ============================================================================ 
.................... void state_navigation_entry(void) { 
....................     nav_start_time = ms_tick; 
*
00524:  MOVFF  22,3B
00528:  MOVFF  21,3A
0052C:  MOVFF  20,39
00530:  MOVFF  1F,38
....................      
....................     // Start pivot turn based on direction 
....................     if (nav_direction == NAV_RIGHT) { 
00534:  DECFSZ 1B,W
00536:  BRA    0540
....................         motor_pivot_right(BASE_PWM); 
00538:  MOVLW  A0
0053A:  MOVWF  x64
0053C:  RCALL  04A8
....................     } else if (nav_direction == NAV_LEFT) { 
0053E:  BRA    054C
00540:  MOVF   1B,W
00542:  SUBLW  02
00544:  BNZ   054C
....................         motor_pivot_left(BASE_PWM); 
00546:  MOVLW  A0
00548:  MOVWF  x64
0054A:  RCALL  04E6
....................     } 
0054C:  RETURN 0
.................... } 
....................  
.................... void state_navigation_update(void) { 
....................     int8 pattern; 
....................     int32 turn_duration; 
....................  
....................     pattern = sensors_read_filtered(); 
*
010EC:  CALL   01E2
010F0:  MOVFF  01,44
....................     turn_duration = ms_tick - nav_start_time; 
010F4:  MOVF   38,W
010F6:  SUBWF  1F,W
010F8:  MOVWF  45
010FA:  MOVF   39,W
010FC:  SUBWFB 20,W
010FE:  MOVWF  46
01100:  MOVF   3A,W
01102:  SUBWFB 21,W
01104:  MOVWF  47
01106:  MOVF   3B,W
01108:  SUBWFB 22,W
0110A:  MOVWF  48
....................      
....................     if (turn_duration < NAV_MIN_MS) { 
0110C:  MOVF   48,F
0110E:  BNZ   1120
01110:  MOVF   47,F
01112:  BNZ   1120
01114:  MOVF   46,F
01116:  BNZ   1120
01118:  MOVF   45,W
0111A:  SUBLW  C7
0111C:  BNC   1120
....................         return; 
0111E:  BRA    1158
....................     } 
....................      
....................     // ? 0b010 ? CCS không h? tr? 
....................     // ? důng hex 
....................     if ((pattern & 0x02) != 0) { 
01120:  MOVF   44,W
01122:  ANDLW  02
01124:  BZ    113A
01126:  CLRF   17
01128:  BTFSC  FF2.7
0112A:  BSF    17.7
0112C:  BCF    FF2.7
....................         fsm_transition(STATE_FOLLOW_LINE); 
0112E:  MOVLW  01
01130:  MOVWF  x63
01132:  CALL   05A8
01136:  BTFSC  17.7
01138:  BSF    FF2.7
....................     } 
....................      
....................     if (turn_duration > 2000) { 
0113A:  MOVF   48,F
0113C:  BNZ   1152
0113E:  MOVF   47,F
01140:  BNZ   1152
01142:  MOVF   46,W
01144:  SUBLW  06
01146:  BC    1158
01148:  XORLW  FF
0114A:  BNZ   1152
0114C:  MOVF   45,W
0114E:  SUBLW  D0
01150:  BC    1158
....................         fsm_handle_error(ERR_LOST_LINE); 
01152:  MOVLW  01
01154:  MOVWF  4A
01156:  RCALL  0C62
....................     } 
01158:  GOTO   1536 (RETURN)
.................... } 
....................  
.................... void state_navigation_exit(void) { 
....................     motor_stop(); 
*
0043E:  RCALL  0314
....................     delay_ms(100);  // Brief pause to stabilize 
00440:  MOVLW  64
00442:  MOVWF  x65
00444:  RCALL  02A2
....................      
....................     // Luu checkpoint sau khi navigation thŕnh công 
....................     fsm_save_checkpoint(CP_AFTER_NAVIGATION); 
00446:  MOVLW  02
00448:  MOVWF  x64
0044A:  RCALL  032A
0044C:  RETURN 0
.................... } 
....................  
.................... // ============================================================================ 
.................... // STATE: END 
.................... // Reached END point, release ball 
.................... // ============================================================================ 
.................... void state_end_entry(void) { 
....................     // Move forward slightly to ensure contact 
....................     motor_forward(SLOW_PWM); 
*
0057E:  MOVLW  50
00580:  MOVWF  x64
00582:  RCALL  054E
....................     delay_ms(300); 
00584:  MOVLW  02
00586:  MOVWF  x64
00588:  MOVLW  96
0058A:  MOVWF  x65
0058C:  RCALL  02A2
0058E:  DECFSZ x64,F
00590:  BRA    0588
....................     motor_stop(); 
00592:  RCALL  0314
....................      
....................     // Release ball 
....................     peripherals_release_ball(); 
00594:  RCALL  055E
00596:  RETURN 0
....................      
....................     // LED1 v?n sáng - ch? t?t sau 2s trong state_end_update 
.................... } 
....................  
.................... void state_end_update(void) { 
....................     // Wait for release duration (2s) 
....................     if ((ms_tick - state_entry_time) >= RELEASE_MS) { 
*
0115C:  MOVF   33,W
0115E:  SUBWF  1F,W
01160:  MOVWF  44
01162:  MOVF   34,W
01164:  SUBWFB 20,W
01166:  MOVWF  45
01168:  MOVF   35,W
0116A:  SUBWFB 21,W
0116C:  MOVWF  46
0116E:  MOVF   36,W
01170:  SUBWFB 22,W
01172:  MOVWF  47
01174:  MOVF   47,F
01176:  BNZ   118C
01178:  MOVF   46,F
0117A:  BNZ   118C
0117C:  MOVF   45,W
0117E:  SUBLW  06
01180:  BC    11C6
01182:  XORLW  FF
01184:  BNZ   118C
01186:  MOVF   44,W
01188:  SUBLW  CF
0118A:  BC    11C6
0118C:  CLRF   17
0118E:  BTFSC  FF2.7
01190:  BSF    17.7
01192:  BCF    FF2.7
....................         // T?t LED1 sau khi hoŕn thŕnh nhi?m v? (2s) 
....................         sensors_led_status(FALSE);  // LED1 OFF 
01194:  CLRF   x64
01196:  CALL   01D2
0119A:  BTFSC  17.7
0119C:  BSF    FF2.7
0119E:  CLRF   17
011A0:  BTFSC  FF2.7
011A2:  BSF    17.7
011A4:  BCF    FF2.7
....................         sensors_led_action(FALSE);  // LED2 OFF 
011A6:  CLRF   x64
011A8:  CALL   01E8
011AC:  BTFSC  17.7
011AE:  BSF    FF2.7
....................         ball_grabbed = FALSE; 
011B0:  BCF    1D.1
011B2:  CLRF   17
011B4:  BTFSC  FF2.7
011B6:  BSF    17.7
011B8:  BCF    FF2.7
....................          
....................         // Chuy?n sang state lůi thay vě reset ngay 
....................         fsm_transition(STATE_END_REVERSE); 
011BA:  MOVLW  07
011BC:  MOVWF  x63
011BE:  CALL   05A8
011C2:  BTFSC  17.7
011C4:  BSF    FF2.7
....................     } 
011C6:  GOTO   1536 (RETURN)
.................... } 
....................  
.................... void state_end_exit(void) { 
*
0044E:  RETURN 0
....................     // Chu?n b? chuy?n sang state lůi 
.................... } 
....................  
.................... // ============================================================================ 
.................... // STATE: END_REVERSE 
.................... // Reversing after ball release until all sensors see white (000) 
.................... // ============================================================================ 
.................... void state_end_reverse_entry(void) { 
....................     // B?t d?u lůi v?i t?c d? ch?m 
....................     motor_reverse(SLOW_PWM); 
*
00598:  MOVLW  50
0059A:  MOVWF  x64
0059C:  RCALL  048A
0059E:  RETURN 0
.................... } 
....................  
.................... void state_end_reverse_update(void) { 
....................     int8 pattern; 
....................      
....................     // Đ?c c?m bi?n 
....................     pattern = sensors_read_filtered(); 
*
011E2:  CALL   01E2
011E6:  MOVFF  01,44
....................      
....................     // Ki?m tra n?u c? 3 c?m bi?n th?y n?n tr?ng (000) 
....................     if (pattern == 0b000) { 
011EA:  MOVF   44,F
011EC:  BNZ   1242
011EE:  CLRF   17
011F0:  BTFSC  FF2.7
011F2:  BSF    17.7
011F4:  BCF    FF2.7
....................         // D?ng motor 
....................         motor_stop(); 
011F6:  CALL   0314
011FA:  BTFSC  17.7
011FC:  BSF    FF2.7
....................         motor_disable(); 
011FE:  BRA    11CA
01200:  CLRF   17
01202:  BTFSC  FF2.7
01204:  BSF    17.7
01206:  BCF    FF2.7
....................          
....................         // T?t t?t c? LED 
....................         sensors_led_status(FALSE);  // LED1 OFF 
01208:  CLRF   x64
0120A:  CALL   01D2
0120E:  BTFSC  17.7
01210:  BSF    FF2.7
01212:  CLRF   17
01214:  BTFSC  FF2.7
01216:  BSF    17.7
01218:  BCF    FF2.7
....................         sensors_led_action(FALSE);  // LED2 OFF 
0121A:  CLRF   x64
0121C:  CALL   01E8
01220:  BTFSC  17.7
01222:  BSF    FF2.7
....................          
....................         // Ch? m?t chút tru?c khi reset 
....................         delay_ms(1000); 
01224:  MOVLW  04
01226:  MOVWF  45
01228:  CLRF   17
0122A:  BTFSC  FF2.7
0122C:  BSF    17.7
0122E:  BCF    FF2.7
01230:  MOVLW  FA
01232:  MOVWF  x65
01234:  CALL   02A2
01238:  BTFSC  17.7
0123A:  BSF    FF2.7
0123C:  DECFSZ 45,F
0123E:  BRA    1228
....................          
....................         // Reset h? th?ng d? b?t d?u chu k? m?i 
....................         reset_cpu(); 
01240:  RESET
....................     } 
01242:  GOTO   1536 (RETURN)
....................      
....................     // Ti?p t?c lůi n?u chua th?y n?n tr?ng 
....................     // (motor dă du?c b?t trong entry) 
.................... } 
....................  
.................... void state_end_reverse_exit(void) { 
....................     motor_stop(); 
*
00450:  RCALL  0314
00452:  RETURN 0
.................... } 
....................  
.................... // ============================================================================ 
.................... // STATE: ERROR 
.................... // Error recovery state 
.................... // ============================================================================ 
.................... void state_error_entry(void) { 
....................     motor_stop(); 
*
005A0:  RCALL  0314
005A2:  RETURN 0
....................     // LED1 không t?t - ch? nháy d? báo l?i 
.................... } 
....................  
.................... void state_error_update(void) { 
....................     // Blink status LED 
....................     if ((ms_tick % 500) < 250) { 
*
01246:  BSF    FD8.1
01248:  CLRF   FEA
0124A:  MOVLW  44
0124C:  MOVWF  FE9
0124E:  MOVFF  22,53
01252:  MOVFF  21,52
01256:  MOVFF  20,51
0125A:  MOVFF  1F,50
0125E:  CLRF   57
01260:  CLRF   56
01262:  MOVLW  01
01264:  MOVWF  55
01266:  MOVLW  F4
01268:  MOVWF  54
0126A:  RCALL  0F50
0126C:  MOVFF  47,4B
01270:  MOVFF  46,4A
01274:  MOVFF  45,49
01278:  MOVFF  44,48
0127C:  MOVF   4B,F
0127E:  BNZ   12A4
01280:  MOVF   4A,F
01282:  BNZ   12A4
01284:  MOVF   49,F
01286:  BNZ   12A4
01288:  MOVF   48,W
0128A:  SUBLW  F9
0128C:  BNC   12A4
0128E:  CLRF   17
01290:  BTFSC  FF2.7
01292:  BSF    17.7
01294:  BCF    FF2.7
....................         sensors_led_status(TRUE); 
01296:  MOVLW  01
01298:  MOVWF  x64
0129A:  CALL   01D2
0129E:  BTFSC  17.7
012A0:  BSF    FF2.7
....................     } else { 
012A2:  BRA    12B6
012A4:  CLRF   17
012A6:  BTFSC  FF2.7
012A8:  BSF    17.7
012AA:  BCF    FF2.7
....................         sensors_led_status(FALSE); 
012AC:  CLRF   x64
012AE:  CALL   01D2
012B2:  BTFSC  17.7
012B4:  BSF    FF2.7
....................     } 
....................      
....................     // Wait for RUN button press to resume from checkpoint (only if system enabled) 
....................     if (system_enabled && run_pressed) { 
012B6:  BTFSS  1D.3
012B8:  BRA    12DE
012BA:  BTFSS  1D.5
012BC:  BRA    12DE
....................         run_pressed = FALSE; 
012BE:  BCF    1D.5
....................         retry_count++; 
012C0:  INCF   1E,F
....................          
....................         if (retry_count > MAX_RETRIES) { 
012C2:  MOVF   1E,W
012C4:  SUBLW  03
012C6:  BC    12CA
....................             // Too many retries, stay in error state 
....................             return; 
012C8:  BRA    12DE
012CA:  CLRF   17
012CC:  BTFSC  FF2.7
012CE:  BSF    17.7
012D0:  BCF    FF2.7
....................         } 
....................          
....................         fsm_transition(STATE_CHECKPOINT); 
012D2:  MOVLW  09
012D4:  MOVWF  x63
012D6:  CALL   05A8
012DA:  BTFSC  17.7
012DC:  BSF    FF2.7
....................     } 
012DE:  GOTO   1536 (RETURN)
.................... } 
....................  
.................... void state_error_exit(void) { 
....................     // Đ?m b?o LED1 sáng khi thoát kh?i error state 
....................     sensors_led_status(TRUE); 
*
00454:  MOVLW  01
00456:  MOVWF  x64
00458:  RCALL  01D2
0045A:  RETURN 0
.................... } 
....................  
.................... // ============================================================================ 
.................... // STATE: CHECKPOINT 
.................... // Resume from saved checkpoint 
.................... // ============================================================================ 
.................... void state_checkpoint_entry(void) { 
....................     // Đ?c checkpoint t? EEPROM s? du?c th?c hi?n trong update 
....................     motor_stop(); 
*
005A4:  RCALL  0314
005A6:  RETURN 0
.................... } 
....................  
.................... void state_checkpoint_update(void) { 
....................     // Khôi ph?c tr?ng thái t? EEPROM 
....................     current_checkpoint = read_eeprom(EEPROM_CHECKPOINT); 
*
012E2:  MOVFF  FF2,45
012E6:  BCF    FF2.7
012E8:  CLRF   FAA
012EA:  CLRF   FA9
012EC:  BCF    FA6.6
012EE:  BCF    FA6.7
012F0:  BSF    FA6.0
012F2:  MOVF   FA8,W
012F4:  BTFSC  45.7
012F6:  BSF    FF2.7
012F8:  MOVWF  1C
....................     nav_direction = read_eeprom(EEPROM_NAV_DIR); 
012FA:  MOVFF  FF2,45
012FE:  BCF    FF2.7
01300:  CLRF   FAA
01302:  MOVLW  02
01304:  MOVWF  FA9
01306:  BCF    FA6.6
01308:  BCF    FA6.7
0130A:  BSF    FA6.0
0130C:  MOVF   FA8,W
0130E:  BTFSC  45.7
01310:  BSF    FF2.7
01312:  MOVWF  1B
....................     int8 saved_ball = read_eeprom(EEPROM_BALL_STATUS); 
01314:  MOVFF  FF2,45
01318:  BCF    FF2.7
0131A:  CLRF   FAA
0131C:  MOVLW  03
0131E:  MOVWF  FA9
01320:  BCF    FA6.6
01322:  BCF    FA6.7
01324:  BSF    FA6.0
01326:  MOVF   FA8,W
01328:  BTFSC  45.7
0132A:  BSF    FF2.7
0132C:  MOVWF  44
....................     intersection_count = read_eeprom(EEPROM_INTERSECT_CNT); 
0132E:  MOVFF  FF2,45
01332:  BCF    FF2.7
01334:  CLRF   FAA
01336:  MOVLW  04
01338:  MOVWF  FA9
0133A:  BCF    FA6.6
0133C:  BCF    FA6.7
0133E:  BSF    FA6.0
01340:  MOVF   FA8,W
01342:  BTFSC  45.7
01344:  BSF    FF2.7
01346:  MOVWF  31
....................     right_turn_count = read_eeprom(EEPROM_RIGHT_CNT); 
01348:  MOVFF  FF2,45
0134C:  BCF    FF2.7
0134E:  CLRF   FAA
01350:  MOVLW  05
01352:  MOVWF  FA9
01354:  BCF    FA6.6
01356:  BCF    FA6.7
01358:  BSF    FA6.0
0135A:  MOVF   FA8,W
0135C:  BTFSC  45.7
0135E:  BSF    FF2.7
01360:  MOVWF  32
....................      
....................     // Khôi ph?c ball status (co c?u thu?n co khí) 
....................     ball_grabbed = (saved_ball == 1); 
01362:  BCF    1D.1
01364:  DECFSZ 44,W
01366:  BRA    136A
01368:  BSF    1D.1
....................     // LED2 luôn OFF khi restore - ch? nháy t?i station 
....................      
....................     // Resume state d?a tręn checkpoint 
....................     switch (current_checkpoint) { 
0136A:  MOVF   1C,W
0136C:  XORLW  01
0136E:  BZ    137A
01370:  XORLW  03
01372:  BZ    13A8
01374:  XORLW  01
01376:  BZ    13D2
01378:  BRA    13FC
....................         case CP_START:  // Checkpoint 1 
....................             // B?t d?u t? d?u - chua có bi 
....................             ball_grabbed = FALSE; 
0137A:  BCF    1D.1
0137C:  CLRF   17
0137E:  BTFSC  FF2.7
01380:  BSF    17.7
01382:  BCF    FF2.7
....................             sensors_led_action(FALSE); 
01384:  CLRF   x64
01386:  CALL   01E8
0138A:  BTFSC  17.7
0138C:  BSF    FF2.7
....................             intersection_count = 0; 
0138E:  CLRF   31
....................             right_turn_count = 0; 
01390:  CLRF   32
01392:  CLRF   17
01394:  BTFSC  FF2.7
01396:  BSF    17.7
01398:  BCF    FF2.7
....................             fsm_transition(STATE_FOLLOW_LINE); 
0139A:  MOVLW  01
0139C:  MOVWF  x63
0139E:  CALL   05A8
013A2:  BTFSC  17.7
013A4:  BSF    FF2.7
....................             break; 
013A6:  BRA    1428
....................              
....................         case CP_AFTER_NAVIGATION:  // Checkpoint 2 
....................             // Sau navigation thŕnh công, b?t d?u d?m pattern 
....................             ball_grabbed = TRUE; 
013A8:  BSF    1D.1
013AA:  CLRF   17
013AC:  BTFSC  FF2.7
013AE:  BSF    17.7
013B0:  BCF    FF2.7
....................             sensors_led_action(FALSE);  // LED2 OFF - ch? nháy t?i station 
013B2:  CLRF   x64
013B4:  CALL   01E8
013B8:  BTFSC  17.7
013BA:  BSF    FF2.7
013BC:  CLRF   17
013BE:  BTFSC  FF2.7
013C0:  BSF    17.7
013C2:  BCF    FF2.7
....................             // Counters dă du?c khôi ph?c t? EEPROM 
....................             fsm_transition(STATE_FOLLOW_LINE); 
013C4:  MOVLW  01
013C6:  MOVWF  x63
013C8:  CALL   05A8
013CC:  BTFSC  17.7
013CE:  BSF    FF2.7
....................             break; 
013D0:  BRA    1428
....................              
....................         case CP_BEFORE_END:  // Checkpoint 3 
....................             // Có bi, dang tręn du?ng d?n END 
....................             ball_grabbed = TRUE; 
013D2:  BSF    1D.1
013D4:  CLRF   17
013D6:  BTFSC  FF2.7
013D8:  BSF    17.7
013DA:  BCF    FF2.7
....................             sensors_led_action(FALSE);  // LED2 OFF - ch? nháy t?i station 
013DC:  CLRF   x64
013DE:  CALL   01E8
013E2:  BTFSC  17.7
013E4:  BSF    FF2.7
013E6:  CLRF   17
013E8:  BTFSC  FF2.7
013EA:  BSF    17.7
013EC:  BCF    FF2.7
....................             fsm_transition(STATE_FOLLOW_LINE); 
013EE:  MOVLW  01
013F0:  MOVWF  x63
013F2:  CALL   05A8
013F6:  BTFSC  17.7
013F8:  BSF    FF2.7
....................             break; 
013FA:  BRA    1428
....................              
....................         default: 
....................             // Checkpoint không h?p l? - reset v? d?u 
....................             ball_grabbed = FALSE; 
013FC:  BCF    1D.1
013FE:  CLRF   17
01400:  BTFSC  FF2.7
01402:  BSF    17.7
01404:  BCF    FF2.7
....................             sensors_led_action(FALSE); 
01406:  CLRF   x64
01408:  CALL   01E8
0140C:  BTFSC  17.7
0140E:  BSF    FF2.7
....................             intersection_count = 0; 
01410:  CLRF   31
....................             right_turn_count = 0; 
01412:  CLRF   32
01414:  CLRF   17
01416:  BTFSC  FF2.7
01418:  BSF    17.7
0141A:  BCF    FF2.7
....................             fsm_transition(STATE_FOLLOW_LINE); 
0141C:  MOVLW  01
0141E:  MOVWF  x63
01420:  CALL   05A8
01424:  BTFSC  17.7
01426:  BSF    FF2.7
....................             break; 
....................     } 
01428:  GOTO   1536 (RETURN)
.................... } 
....................  
.................... void state_checkpoint_exit(void) { 
*
0045C:  RETURN 0
....................     // Nothing to clean up 
.................... } 
....................  
.................... // ============================================================================ 
.................... // ERROR HANDLING 
.................... // ============================================================================ 
.................... void fsm_handle_error(ErrorType_t error) { 
....................     current_error = error; 
*
00C62:  MOVFF  4A,1A
00C66:  CLRF   17
00C68:  BTFSC  FF2.7
00C6A:  BSF    17.7
00C6C:  BCF    FF2.7
....................     fsm_transition(STATE_ERROR); 
00C6E:  MOVLW  08
00C70:  MOVWF  x63
00C72:  RCALL  05A8
00C74:  BTFSC  17.7
00C76:  BSF    FF2.7
00C78:  RETURN 0
.................... } 
....................  
.................... // ============================================================================ 
.................... // SAVE CHECKPOINT TO EEPROM 
.................... // ============================================================================ 
.................... void fsm_save_checkpoint(Checkpoint_t cp) { 
....................     current_checkpoint = cp; 
*
0032A:  MOVFF  64,1C
....................     write_eeprom(EEPROM_CHECKPOINT, cp); 
0032E:  MOVF   FF2,W
00330:  MOVWF  00
00332:  BCF    FF2.7
00334:  CLRF   FAA
00336:  CLRF   FA9
00338:  MOVFF  64,FA8
0033C:  BCF    FA6.6
0033E:  BCF    FA6.7
00340:  BSF    FA6.2
00342:  MOVLB  F
00344:  MOVLW  55
00346:  MOVWF  FA7
00348:  MOVLW  AA
0034A:  MOVWF  FA7
0034C:  BSF    FA6.1
0034E:  BTFSC  FA6.1
00350:  BRA    034E
00352:  BCF    FA6.2
00354:  MOVF   00,W
00356:  IORWF  FF2,F
....................     write_eeprom(EEPROM_STATE, current_state); 
00358:  MOVFF  FF2,00
0035C:  BCF    FF2.7
0035E:  CLRF   FAA
00360:  MOVLW  01
00362:  MOVWF  FA9
00364:  MOVFF  18,FA8
00368:  BCF    FA6.6
0036A:  BCF    FA6.7
0036C:  BSF    FA6.2
0036E:  MOVLW  55
00370:  MOVWF  FA7
00372:  MOVLW  AA
00374:  MOVWF  FA7
00376:  BSF    FA6.1
00378:  BTFSC  FA6.1
0037A:  BRA    0378
0037C:  BCF    FA6.2
0037E:  MOVF   00,W
00380:  IORWF  FF2,F
....................     write_eeprom(EEPROM_NAV_DIR, nav_direction); 
00382:  MOVFF  FF2,00
00386:  BCF    FF2.7
00388:  CLRF   FAA
0038A:  MOVLW  02
0038C:  MOVWF  FA9
0038E:  MOVFF  1B,FA8
00392:  BCF    FA6.6
00394:  BCF    FA6.7
00396:  BSF    FA6.2
00398:  MOVLW  55
0039A:  MOVWF  FA7
0039C:  MOVLW  AA
0039E:  MOVWF  FA7
003A0:  BSF    FA6.1
003A2:  BTFSC  FA6.1
003A4:  BRA    03A2
003A6:  BCF    FA6.2
003A8:  MOVF   00,W
003AA:  IORWF  FF2,F
....................     write_eeprom(EEPROM_BALL_STATUS, ball_grabbed ? 1 : 0); 
003AC:  BTFSS  1D.1
003AE:  BRA    03B4
003B0:  MOVLW  01
003B2:  BRA    03B6
003B4:  MOVLW  00
003B6:  MOVLB  0
003B8:  MOVWF  x65
003BA:  MOVF   FF2,W
003BC:  MOVWF  00
003BE:  BCF    FF2.7
003C0:  CLRF   FAA
003C2:  MOVLW  03
003C4:  MOVWF  FA9
003C6:  MOVFF  65,FA8
003CA:  BCF    FA6.6
003CC:  BCF    FA6.7
003CE:  BSF    FA6.2
003D0:  MOVLB  F
003D2:  MOVLW  55
003D4:  MOVWF  FA7
003D6:  MOVLW  AA
003D8:  MOVWF  FA7
003DA:  BSF    FA6.1
003DC:  BTFSC  FA6.1
003DE:  BRA    03DC
003E0:  BCF    FA6.2
003E2:  MOVF   00,W
003E4:  IORWF  FF2,F
....................     write_eeprom(EEPROM_INTERSECT_CNT, intersection_count); 
003E6:  MOVFF  FF2,00
003EA:  BCF    FF2.7
003EC:  CLRF   FAA
003EE:  MOVLW  04
003F0:  MOVWF  FA9
003F2:  MOVFF  31,FA8
003F6:  BCF    FA6.6
003F8:  BCF    FA6.7
003FA:  BSF    FA6.2
003FC:  MOVLW  55
003FE:  MOVWF  FA7
00400:  MOVLW  AA
00402:  MOVWF  FA7
00404:  BSF    FA6.1
00406:  BTFSC  FA6.1
00408:  BRA    0406
0040A:  BCF    FA6.2
0040C:  MOVF   00,W
0040E:  IORWF  FF2,F
....................     write_eeprom(EEPROM_RIGHT_CNT, right_turn_count); 
00410:  MOVFF  FF2,00
00414:  BCF    FF2.7
00416:  CLRF   FAA
00418:  MOVLW  05
0041A:  MOVWF  FA9
0041C:  MOVFF  32,FA8
00420:  BCF    FA6.6
00422:  BCF    FA6.7
00424:  BSF    FA6.2
00426:  MOVLW  55
00428:  MOVWF  FA7
0042A:  MOVLW  AA
0042C:  MOVWF  FA7
0042E:  BSF    FA6.1
00430:  BTFSC  FA6.1
00432:  BRA    0430
00434:  BCF    FA6.2
00436:  MOVF   00,W
00438:  IORWF  FF2,F
0043A:  MOVLB  0
0043C:  RETURN 0
.................... } 
....................  
.................... // ============================================================================ 
.................... // RESTORE FROM CHECKPOINT 
.................... // ============================================================================ 
.................... void fsm_restore_checkpoint(void) { 
....................     fsm_transition(STATE_CHECKPOINT); 
.................... } 
....................  
....................  
....................  
....................  
.................... // ============================================================================ 
.................... // GLOBAL TIMING VARIABLES (volatile - modified in ISR) 
.................... // ============================================================================ 
.................... volatile int32 ms_tick = 0;        // System millisecond counter 
.................... volatile int16 led_tick = 0;       // LED blink counter 
.................... volatile int1 led2_blink_enable = FALSE;  // Enable LED2 blinking 
.................... volatile int8 led2_blink_count = 0;       // Count LED2 blinks 
.................... volatile int1 led1_should_be_on = FALSE;  // LED1 state control 
....................  
.................... // ============================================================================ 
.................... // TIMER0 INTERRUPT SERVICE ROUTINE 
.................... // Triggers every 2ms to provide system heartbeat 
.................... // ============================================================================ 
.................... #INT_TIMER0 
.................... void timer0_isr(void) { 
....................     // Reload Timer0 for 2ms interval 
....................     set_timer0(63036); 
*
0020A:  MOVLW  F6
0020C:  MOVWF  FD7
0020E:  MOVLW  3C
00210:  MOVWF  FD6
....................      
....................     ms_tick += 2;  // Increment millisecond counter 
00212:  MOVLW  02
00214:  ADDWF  1F,F
00216:  MOVLW  00
00218:  ADDWFC 20,F
0021A:  ADDWFC 21,F
0021C:  ADDWFC 22,F
....................      
....................     // Read sensors and apply chatter filter 
....................     int8 raw_pattern = sensors_read_raw(); 
0021E:  BRA    0104
00220:  MOVFF  01,5E
....................     sensors_chatter_filter(raw_pattern); 
00224:  MOVFF  5E,61
00228:  BRA    016C
....................      
....................     // Duy trě tr?ng thái LED1 - luôn sáng khi system enabled 
....................     if (led1_should_be_on && system_enabled) { 
0022A:  BTFSS  2E.5
0022C:  BRA    023A
0022E:  BTFSS  1D.3
00230:  BRA    023A
....................         sensors_led_status(TRUE); 
00232:  MOVLW  01
00234:  MOVWF  x64
00236:  RCALL  01D2
....................     } else { 
00238:  BRA    023E
....................         sensors_led_status(FALSE); 
0023A:  CLRF   x64
0023C:  RCALL  01D2
....................     } 
....................      
....................     // Handle LED2 control based on middle sensor - CH? KHI SYSTEM ENABLED VŔ KHÔNG BLINK 
....................     if (system_enabled && !led2_blink_enable) { 
0023E:  BTFSS  1D.3
00240:  BRA    025C
00242:  BTFSC  1D.2
00244:  BRA    025C
....................         int8 current_pattern = sensors_read_filtered(); 
00246:  RCALL  01E2
00248:  MOVFF  01,5F
....................         // LED2 t?t ch? khi sensor gi?a th?y line den (bit 1 = 1) 
....................         if (current_pattern & 0b010) { 
0024C:  BTFSS  5F.1
0024E:  BRA    0256
....................             sensors_led_action(FALSE);  // LED2 OFF when middle sensor sees black line 
00250:  CLRF   x64
00252:  RCALL  01E8
....................         } else { 
00254:  BRA    025C
....................             sensors_led_action(TRUE);   // LED2 ON when middle sensor doesn't see black line 
00256:  MOVLW  01
00258:  MOVWF  x64
0025A:  RCALL  01E8
....................         } 
....................     } 
....................      
....................     // Handle LED blinking for action LED 
....................     led_tick++; 
0025C:  INCF   23,F
0025E:  BTFSC  FD8.2
00260:  INCF   24,F
....................     if (led_tick >= 125) {  // 125 * 2ms = 250ms 
00262:  MOVF   24,F
00264:  BNZ   026C
00266:  MOVF   23,W
00268:  SUBLW  7C
0026A:  BC    029C
....................         led_tick = 0; 
0026C:  CLRF   24
0026E:  CLRF   23
....................          
....................         // Handle LED2 blinking when enabled - UU TIĘN BLINK H?N SENSOR LOGIC 
....................         if (led2_blink_enable) { 
00270:  BTFSS  1D.2
00272:  BRA    029C
....................             sensors_led_action_toggle();  // Toggle LED2 
00274:  BRA    01F8
....................             led2_blink_count++; 
00276:  INCF   25,F
....................              
....................             // Stop blinking after 6 toggles (3 complete blinks) 
....................             if (led2_blink_count >= 6) { 
00278:  MOVF   25,W
0027A:  SUBLW  05
0027C:  BC    029C
....................                 led2_blink_enable = FALSE; 
0027E:  BCF    1D.2
....................                 led2_blink_count = 0; 
00280:  CLRF   25
....................                 // Sau khi blink xong, tr? v? logic sensor 
....................                 if (system_enabled) { 
00282:  BTFSS  1D.3
00284:  BRA    029C
....................                     int8 current_pattern = sensors_read_filtered(); 
00286:  RCALL  01E2
00288:  MOVFF  01,60
....................                     if (current_pattern & 0b010) { 
0028C:  BTFSS  x60.1
0028E:  BRA    0296
....................                         sensors_led_action(FALSE); 
00290:  CLRF   x64
00292:  RCALL  01E8
....................                     } else { 
00294:  BRA    029C
....................                         sensors_led_action(TRUE); 
00296:  MOVLW  01
00298:  MOVWF  x64
0029A:  RCALL  01E8
....................                     } 
....................                 } 
....................             } 
....................         } 
....................     } 
0029C:  BCF    FF2.2
0029E:  GOTO   0070
.................... } 
....................  
.................... // ============================================================================ 
.................... // GLOBAL VARIABLES FOR BUTTON HANDLING 
.................... // ============================================================================ 
.................... volatile int1 system_enabled = FALSE;      // System ON/OFF state (RB7) 
.................... volatile int1 stop_pressed = FALSE;        // Nút STOP - checkpoint logic (RB0) 
.................... volatile int1 run_pressed = FALSE;         // Nút RUN - start from checkpoint (RB1) 
.................... volatile int1 cp1_long_press = FALSE;      // Flag nh?n gi? STOP 
.................... volatile int32 stop_press_time = 0;        // Th?i gian b?t d?u nh?n STOP 
.................... volatile int1 stop_is_pressed = FALSE;     // Tr?ng thái nh?n STOP 
....................  
.................... // ============================================================================ 
.................... // PORT B CHANGE INTERRUPT 
.................... // Handles System ON/OFF (B7), STOP button (B0) and RUN button (B1) 
.................... // ============================================================================ 
.................... #INT_RB 
.................... void portb_change_isr(void) { 
*
006B2:  SETF   F93
006B4:  MOVFF  F81,5E
....................     int8 portb = input_b();  // Read to clear mismatch 
....................      
....................     // System ON/OFF button (B7) - simple toggle 
....................     if (!input(BUTTON_SYSTEM)) {  // Active low - dang nh?n 
006B8:  BSF    F93.7
006BA:  BTFSC  F81.7
006BC:  BRA    06F0
....................         delay_ms(50);  // Debounce 
006BE:  MOVLW  32
006C0:  MOVWF  x65
006C2:  RCALL  02A2
....................         if (!input(BUTTON_SYSTEM)) { 
006C4:  BSF    F93.7
006C6:  BTFSC  F81.7
006C8:  BRA    06F0
....................             system_enabled = !system_enabled;  // Toggle system state 
006CA:  BTG    1D.3
....................              
....................             if (!system_enabled) { 
006CC:  BTFSC  1D.3
006CE:  BRA    06E2
....................                 // System OFF - stop everything 
....................                 led1_should_be_on = FALSE; 
006D0:  BCF    2E.5
....................                 motor_stop(); 
006D2:  RCALL  0314
....................                 sensors_led_status(FALSE);  // LED1 OFF 
006D4:  CLRF   x64
006D6:  RCALL  01D2
....................                 sensors_led_action(FALSE);  // LED2 OFF 
006D8:  CLRF   x64
006DA:  RCALL  01E8
....................                 fsm_transition(STATE_IDLE); 
006DC:  CLRF   x63
006DE:  RCALL  05A8
....................             } else { 
006E0:  BRA    06F0
....................                 // System ON - c? 2 LED sáng khi b?t ngu?n 
....................                 led1_should_be_on = TRUE; 
006E2:  BSF    2E.5
....................                 sensors_led_status(TRUE);   // LED1 ON 
006E4:  MOVLW  01
006E6:  MOVWF  x64
006E8:  RCALL  01D2
....................                 sensors_led_action(TRUE);   // LED2 ON 
006EA:  MOVLW  01
006EC:  MOVWF  x64
006EE:  RCALL  01E8
....................             } 
....................         } 
....................     } 
....................      
....................     // Only process other buttons if system is enabled 
....................     if (!system_enabled) { 
006F0:  BTFSC  1D.3
006F2:  BRA    06F6
....................         return; 
006F4:  BRA    0768
....................     } 
....................      
....................     // STOP button (B0) - x? lý nh?n gi?/th? cho checkpoint logic 
....................     if (!input(BUTTON_STOP)) {  // Active low - dang nh?n 
006F6:  BSF    F93.0
006F8:  BTFSC  F81.0
006FA:  BRA    0714
....................         if (!stop_is_pressed) { 
006FC:  BTFSC  2E.6
006FE:  BRA    0712
....................             stop_press_time = ms_tick; 
00700:  MOVFF  22,43
00704:  MOVFF  21,42
00708:  MOVFF  20,41
0070C:  MOVFF  1F,40
....................             stop_is_pressed = TRUE; 
00710:  BSF    2E.6
....................         } 
....................     } else {  // Đă th? nút 
00712:  BRA    0754
....................         if (stop_is_pressed) { 
00714:  BTFSS  2E.6
00716:  BRA    0754
....................             int32 press_duration = ms_tick - stop_press_time; 
00718:  MOVF   40,W
0071A:  SUBWF  1F,W
0071C:  MOVWF  5F
0071E:  MOVF   41,W
00720:  SUBWFB 20,W
00722:  MOVWF  x60
00724:  MOVF   42,W
00726:  SUBWFB 21,W
00728:  MOVWF  x61
0072A:  MOVF   43,W
0072C:  SUBWFB 22,W
0072E:  MOVWF  x62
....................             if (press_duration >= 1000) {  // Nh?n gi? >= 1s 
00730:  MOVF   x62,F
00732:  BNZ   0748
00734:  MOVF   x61,F
00736:  BNZ   0748
00738:  MOVF   x60,W
0073A:  SUBLW  02
0073C:  BC    074E
0073E:  XORLW  FF
00740:  BNZ   0748
00742:  MOVF   5F,W
00744:  SUBLW  E7
00746:  BC    074E
....................                 stop_pressed = TRUE; 
00748:  BSF    1D.4
....................                 cp1_long_press = TRUE; 
0074A:  BSF    1D.6
....................             } else {  // Nh?n th? < 1s 
0074C:  BRA    0752
....................                 stop_pressed = TRUE; 
0074E:  BSF    1D.4
....................                 cp1_long_press = FALSE; 
00750:  BCF    1D.6
....................             } 
....................             stop_is_pressed = FALSE; 
00752:  BCF    2E.6
....................         } 
....................     } 
....................      
....................     // RUN button (B1) - ch? nh?n th? 
....................     if (!input(BUTTON_RUN)) {  // Active low 
00754:  BSF    F93.1
00756:  BTFSC  F81.1
00758:  BRA    0768
....................         delay_ms(50); 
0075A:  MOVLW  32
0075C:  MOVWF  x65
0075E:  RCALL  02A2
....................         if (!input(BUTTON_RUN)) { 
00760:  BSF    F93.1
00762:  BTFSC  F81.1
00764:  BRA    0768
....................             run_pressed = TRUE; 
00766:  BSF    1D.5
....................         } 
....................     } 
00768:  BCF    FF2.0
0076A:  GOTO   0070
.................... } 
....................  
.................... // ============================================================================ 
.................... // GPIO INITIALIZATION 
.................... // CRITICAL: Must be called FIRST before any other init 
.................... // ============================================================================ 
.................... void gpio_init(void) { 
....................     // Disable all analog inputs - set all as digital 
....................     setup_adc(ADC_OFF); 
0076E:  BCF    FC2.0
....................     setup_adc_ports(NO_ANALOGS); 
00770:  MOVF   FC1,W
00772:  ANDLW  C0
00774:  IORLW  0F
00776:  MOVWF  FC1
....................      
....................     // Alternative: ADCON1 = 0x0F for all digital 
....................     #byte ADCON1 = 0xFC1 
....................     ADCON1 = 0x0F; 
00778:  MOVLW  0F
0077A:  MOVWF  FC1
....................      
....................     // Configure TRIS registers 
....................     // Inputs: RA0-RA2 (sensors), RB5 (echo), RB7 (button), RB0-RB1 (checkpoint buttons) 
....................     // Outputs: All others 
....................      
....................     set_tris_a(0b00000111);  // RA0-RA2 as inputs 
0077C:  MOVLW  07
0077E:  MOVWF  F92
....................     set_tris_b(0b10100011);  // RB0, RB1, RB5, RB7 as inputs, RB2, RB3 as outputs for LEDs 
00780:  MOVLW  A3
00782:  MOVWF  F93
....................     set_tris_c(0b00000000);  // All outputs 
00784:  MOVLW  00
00786:  MOVWF  F94
....................      
....................     // Initialize all outputs low 
....................     output_low(MOTOR_PWMA); 
00788:  BCF    F94.2
0078A:  BCF    F8B.2
....................     output_low(MOTOR_PWMB); 
0078C:  BCF    F94.3
0078E:  BCF    F8B.3
....................     output_low(MOTOR_AIN1); 
00790:  BCF    F94.6
00792:  BCF    F8B.6
....................     output_low(MOTOR_BIN1); 
00794:  BCF    F94.7
00796:  BCF    F8B.7
....................     output_low(MOTOR_STBY); 
00798:  BCF    F93.6
0079A:  BCF    F8A.6
....................     output_low(LED_STATUS);    // LED1 OFF 
0079C:  BCF    F93.2
0079E:  BCF    F8A.2
....................     output_low(LED_ACTION);    // LED2 OFF 
007A0:  BCF    F93.3
007A2:  BCF    F8A.3
....................     output_low(SERVO_GRAB); 
007A4:  BCF    F94.4
007A6:  BCF    F8B.4
....................     output_low(RELAY_RELEASE); 
007A8:  BCF    F94.5
007AA:  BCF    F8B.5
....................     output_low(ULTRA_TRIG); 
007AC:  BCF    F93.4
007AE:  BCF    F8A.4
....................      
....................     // Enable weak pull-ups on Port B for buttons 
....................     port_b_pullups(0b10000011);  // Pull-up on RB0, RB1, RB7 (checkpoint and RUN buttons) 
007B0:  BCF    FF1.7
007B2:  GOTO   0846 (RETURN)
.................... } 
....................  
.................... // ============================================================================ 
.................... // TIMERS INITIALIZATION 
.................... // ============================================================================ 
.................... void timers_init(void) { 
....................     // Timer0: System tick (2ms interval) for chattering, LED, ms_tick 
....................     // 16-bit mode, internal clock, 1:4 prescaler 
....................     // Calculation: 2ms = (65536 - TMR0) * 4 / (20MHz/4) 
....................     // TMR0 = 65536 - 2500 = 63036 
....................     setup_timer_0(RTCC_INTERNAL | RTCC_DIV_4 | RTCC_8_BIT); 
*
007EA:  MOVLW  C1
007EC:  MOVWF  FD5
....................     set_timer0(63036); 
007EE:  MOVLW  F6
007F0:  MOVWF  FD7
007F2:  MOVLW  3C
007F4:  MOVWF  FD6
....................      
....................     // Timer1: Free-running for ultrasonic sensor 
....................     // Will be reset when needed, but stays enabled 
....................     setup_timer_1(T1_INTERNAL | T1_DIV_BY_1); 
007F6:  MOVLW  85
007F8:  MOVWF  FCD
007FA:  GOTO   084C (RETURN)
....................      
....................     // Timer2: Used by PWM @ 20kHz (configured in motor_init) 
....................     // PR2 = 249, prescaler = 1 ? 20MHz/(4*250*1) = 20kHz 
.................... } 
....................  
.................... // ============================================================================ 
.................... // PWM INITIALIZATION 
.................... // ============================================================================ 
.................... void pwm_init(void) { 
....................     // PWM initialization is handled in motor_init() 
....................     motor_init(); 
*
00830:  BRA    07FE
00832:  GOTO   084E (RETURN)
.................... } 
....................  
.................... // ============================================================================ 
.................... // INTERRUPTS INITIALIZATION 
.................... // ============================================================================ 
.................... void interrupts_init(void) { 
....................     // Enable Timer0 interrupt 
....................     enable_interrupts(INT_TIMER0); 
00836:  BSF    FF2.5
....................      
....................     // Enable Timer2 interrupt (software PWM for right motor) 
....................     enable_interrupts(INT_TIMER2); 
00838:  BSF    F9D.1
....................      
....................     // Enable Port B change interrupt for button 
....................     enable_interrupts(INT_RB); 
0083A:  BSF    FF2.3
....................      
....................     // Enable global interrupts 
....................     enable_interrupts(GLOBAL); 
0083C:  MOVLW  C0
0083E:  IORWF  FF2,F
00840:  GOTO   0850 (RETURN)
.................... } 
....................  
.................... // ============================================================================ 
.................... // SYSTEM INITIALIZATION (calls all init functions in correct order) 
.................... // ============================================================================ 
.................... void system_init(void) { 
....................     // CRITICAL: GPIO must be initialized FIRST 
....................     gpio_init(); 
00844:  BRA    076E
....................      
....................     // Initialize subsystems 
....................     sensors_init(); 
00846:  BRA    07B6
....................     ultrasonic_init(); 
00848:  BRA    07E2
....................     timers_init(); 
0084A:  BRA    07EA
....................     pwm_init(); 
0084C:  BRA    0830
....................      
....................     // Initialize interrupts LAST 
....................     interrupts_init(); 
0084E:  BRA    0836
00850:  CLRF   17
00852:  BTFSC  FF2.7
00854:  BSF    17.7
00856:  BCF    FF2.7
....................      
....................     // Brief delay to stabilize 
....................     delay_ms(100); 
00858:  MOVLW  64
0085A:  MOVWF  x65
0085C:  RCALL  02A2
0085E:  BTFSC  17.7
00860:  BSF    FF2.7
00862:  CLRF   17
00864:  BTFSC  FF2.7
00866:  BSF    17.7
00868:  BCF    FF2.7
....................      
....................     // Flash LEDs to indicate system ready 
....................     sensors_led_status(TRUE); 
0086A:  MOVLW  01
0086C:  MOVWF  x64
0086E:  RCALL  01D2
00870:  BTFSC  17.7
00872:  BSF    FF2.7
00874:  CLRF   17
00876:  BTFSC  FF2.7
00878:  BSF    17.7
0087A:  BCF    FF2.7
....................     sensors_led_action(TRUE); 
0087C:  MOVLW  01
0087E:  MOVWF  x64
00880:  RCALL  01E8
00882:  BTFSC  17.7
00884:  BSF    FF2.7
....................     delay_ms(500); 
00886:  MOVLW  02
00888:  MOVWF  44
0088A:  CLRF   17
0088C:  BTFSC  FF2.7
0088E:  BSF    17.7
00890:  BCF    FF2.7
00892:  MOVLW  FA
00894:  MOVWF  x65
00896:  RCALL  02A2
00898:  BTFSC  17.7
0089A:  BSF    FF2.7
0089C:  DECFSZ 44,F
0089E:  BRA    088A
008A0:  CLRF   17
008A2:  BTFSC  FF2.7
008A4:  BSF    17.7
008A6:  BCF    FF2.7
....................     sensors_led_status(FALSE); 
008A8:  CLRF   x64
008AA:  RCALL  01D2
008AC:  BTFSC  17.7
008AE:  BSF    FF2.7
008B0:  CLRF   17
008B2:  BTFSC  FF2.7
008B4:  BSF    17.7
008B6:  BCF    FF2.7
....................     sensors_led_action(FALSE); 
008B8:  CLRF   x64
008BA:  RCALL  01E8
008BC:  BTFSC  17.7
008BE:  BSF    FF2.7
008C0:  GOTO   14B4 (RETURN)
.................... } 
....................  
.................... // ============================================================================ 
.................... // PERIPHERAL CONTROL - GRAB BALL 
.................... // ============================================================================ 
.................... void peripherals_grab_ball(void) { 
....................     // Activate servo/grabber mechanism 
....................     output_high(SERVO_GRAB); 
*
0047E:  BCF    F94.4
00480:  BSF    F8B.4
00482:  RETURN 0
....................     // LED2 will blink via ISR after GRAB_MS delay 
.................... } 
....................  
.................... // ============================================================================ 
.................... // PERIPHERAL CONTROL - RELEASE BALL 
.................... // ============================================================================ 
.................... void peripherals_release_ball(void) { 
....................     // Activate release mechanism (relay or servo) 
....................     output_high(RELAY_RELEASE); 
*
0055E:  BCF    F94.5
00560:  BSF    F8B.5
....................     delay_ms(RELEASE_MS); 
00562:  MOVLW  08
00564:  MOVWF  x64
00566:  MOVLW  FA
00568:  MOVWF  x65
0056A:  RCALL  02A2
0056C:  DECFSZ x64,F
0056E:  BRA    0566
....................     output_low(RELAY_RELEASE); 
00570:  BCF    F94.5
00572:  BCF    F8B.5
....................     output_low(SERVO_GRAB); 
00574:  BCF    F94.4
00576:  BCF    F8B.4
....................     sensors_led_action(FALSE);  // LED2 OFF after release 
00578:  CLRF   x64
0057A:  RCALL  01E8
0057C:  RETURN 0
.................... } 
....................  
....................  
....................  
.................... // ============================================================================ 
.................... // UTILITY FUNCTIONS 
.................... // ============================================================================ 
.................... int32 get_ms_tick(void) { 
....................     return ms_tick; 
.................... } 
....................  
.................... int1 check_timeout(int32 start_time, int32 timeout_ms) { 
....................     return ((ms_tick - start_time) >= timeout_ms); 
.................... } 
....................  
.................... // ============================================================================ 
.................... // CHECKPOINT BUTTON HANDLING 
.................... // ============================================================================ 
.................... void handle_checkpoint_buttons(void) { 
....................     // Only process checkpoint buttons if system is enabled 
....................     if (!system_enabled) { 
*
008C4:  BTFSC  1D.3
008C6:  BRA    08CA
....................         return; 
008C8:  BRA    0A58
....................     } 
....................      
....................     // X? lý nút STOP (B0) - checkpoint logic 
....................     if (stop_pressed) { 
008CA:  BTFSS  1D.4
008CC:  BRA    099C
....................         stop_pressed = FALSE; 
008CE:  BCF    1D.4
....................          
....................         if (cp1_long_press) {  // Nh?n gi? >= 1s = STOP function 
008D0:  BTFSS  1D.6
008D2:  BRA    091C
....................             // M?c d?nh v? checkpoint 1, chua có bi 
....................             current_checkpoint = CP_START; 
008D4:  MOVLW  01
008D6:  MOVWF  1C
....................             ball_grabbed = FALSE; 
008D8:  BCF    1D.1
008DA:  CLRF   17
008DC:  BTFSC  FF2.7
008DE:  BSF    17.7
008E0:  BCF    FF2.7
....................             sensors_led_action(FALSE); 
008E2:  CLRF   x64
008E4:  RCALL  01E8
008E6:  BTFSC  17.7
008E8:  BSF    FF2.7
008EA:  CLRF   17
008EC:  BTFSC  FF2.7
008EE:  BSF    17.7
008F0:  BCF    FF2.7
....................             motor_stop(); 
008F2:  RCALL  0314
008F4:  BTFSC  17.7
008F6:  BSF    FF2.7
008F8:  CLRF   17
008FA:  BTFSC  FF2.7
008FC:  BSF    17.7
008FE:  BCF    FF2.7
....................             fsm_save_checkpoint(CP_START); 
00900:  MOVLW  01
00902:  MOVWF  x64
00904:  RCALL  032A
00906:  BTFSC  17.7
00908:  BSF    FF2.7
0090A:  CLRF   17
0090C:  BTFSC  FF2.7
0090E:  BSF    17.7
00910:  BCF    FF2.7
....................             fsm_transition(STATE_IDLE); 
00912:  CLRF   x63
00914:  RCALL  05A8
00916:  BTFSC  17.7
00918:  BSF    FF2.7
....................              
....................         } else {  // Nh?n th? < 1s = Cycle through checkpoints 
0091A:  BRA    099C
....................             // Chuy?n d?i gi?a các checkpoint 
....................             switch (current_checkpoint) { 
0091C:  MOVF   1C,W
0091E:  XORLW  01
00920:  BZ    092C
00922:  XORLW  03
00924:  BZ    0944
00926:  XORLW  01
00928:  BZ    095C
0092A:  BRA    0974
....................                 case CP_START: 
....................                     // Checkpoint 1 v?i bi dă l?y 
....................                     current_checkpoint = CP_START; 
0092C:  MOVLW  01
0092E:  MOVWF  1C
....................                     ball_grabbed = TRUE; 
00930:  BSF    1D.1
00932:  CLRF   17
00934:  BTFSC  FF2.7
00936:  BSF    17.7
00938:  BCF    FF2.7
....................                     // LED2 OFF - ch? nháy khi l?y bi thŕnh công t?i station 
....................                     sensors_led_action(FALSE); 
0093A:  CLRF   x64
0093C:  RCALL  01E8
0093E:  BTFSC  17.7
00940:  BSF    FF2.7
....................                     break; 
00942:  BRA    098A
....................                      
....................                 case CP_AFTER_NAVIGATION: 
....................                     // Chuy?n sang checkpoint 3 
....................                     current_checkpoint = CP_BEFORE_END; 
00944:  MOVLW  03
00946:  MOVWF  1C
....................                     ball_grabbed = TRUE; 
00948:  BSF    1D.1
0094A:  CLRF   17
0094C:  BTFSC  FF2.7
0094E:  BSF    17.7
00950:  BCF    FF2.7
....................                     sensors_led_action(FALSE);  // LED2 OFF 
00952:  CLRF   x64
00954:  RCALL  01E8
00956:  BTFSC  17.7
00958:  BSF    FF2.7
....................                     break; 
0095A:  BRA    098A
....................                      
....................                 case CP_BEFORE_END: 
....................                     // Quay l?i checkpoint 2 
....................                     current_checkpoint = CP_AFTER_NAVIGATION; 
0095C:  MOVLW  02
0095E:  MOVWF  1C
....................                     ball_grabbed = TRUE; 
00960:  BSF    1D.1
00962:  CLRF   17
00964:  BTFSC  FF2.7
00966:  BSF    17.7
00968:  BCF    FF2.7
....................                     sensors_led_action(FALSE);  // LED2 OFF 
0096A:  CLRF   x64
0096C:  RCALL  01E8
0096E:  BTFSC  17.7
00970:  BSF    FF2.7
....................                     break; 
00972:  BRA    098A
....................                      
....................                 default: 
....................                     // M?c d?nh v? checkpoint 1 
....................                     current_checkpoint = CP_START; 
00974:  MOVLW  01
00976:  MOVWF  1C
....................                     ball_grabbed = FALSE; 
00978:  BCF    1D.1
0097A:  CLRF   17
0097C:  BTFSC  FF2.7
0097E:  BSF    17.7
00980:  BCF    FF2.7
....................                     sensors_led_action(FALSE); 
00982:  CLRF   x64
00984:  RCALL  01E8
00986:  BTFSC  17.7
00988:  BSF    FF2.7
....................                     break; 
0098A:  CLRF   17
0098C:  BTFSC  FF2.7
0098E:  BSF    17.7
00990:  BCF    FF2.7
....................             } 
....................              
....................             fsm_save_checkpoint(current_checkpoint); 
00992:  MOVFF  1C,64
00996:  RCALL  032A
00998:  BTFSC  17.7
0099A:  BSF    FF2.7
....................             // Không t? d?ng chuy?n state, ch? RUN button 
....................         } 
....................     } 
....................      
....................     // X? lý nút RUN (B1) 
....................     if (run_pressed) { 
0099C:  BTFSS  1D.5
0099E:  BRA    0A58
....................         run_pressed = FALSE; 
009A0:  BCF    1D.5
....................          
....................         // Th?c hi?n RUN t? checkpoint hi?n t?i 
....................         switch (current_checkpoint) { 
009A2:  MOVF   1C,W
009A4:  XORLW  01
009A6:  BZ    09B2
009A8:  XORLW  03
009AA:  BZ    09DE
009AC:  XORLW  01
009AE:  BZ    0A06
009B0:  BRA    0A2E
....................             case CP_START: 
....................                 if (ball_grabbed) { 
009B2:  BTFSS  1D.1
009B4:  BRA    09CA
009B6:  CLRF   17
009B8:  BTFSC  FF2.7
009BA:  BSF    17.7
009BC:  BCF    FF2.7
....................                     // Đă có bi - b? qua station, th?ng navigation 
....................                     fsm_transition(STATE_FOLLOW_LINE); 
009BE:  MOVLW  01
009C0:  MOVWF  x63
009C2:  RCALL  05A8
009C4:  BTFSC  17.7
009C6:  BSF    FF2.7
....................                 } else { 
009C8:  BRA    09DC
009CA:  CLRF   17
009CC:  BTFSC  FF2.7
009CE:  BSF    17.7
009D0:  BCF    FF2.7
....................                     // Chua có bi - bám line vŕ vŕo station 
....................                     fsm_transition(STATE_FOLLOW_LINE); 
009D2:  MOVLW  01
009D4:  MOVWF  x63
009D6:  RCALL  05A8
009D8:  BTFSC  17.7
009DA:  BSF    FF2.7
....................                 } 
....................                 break; 
009DC:  BRA    0A58
....................                  
....................             case CP_AFTER_NAVIGATION: 
....................                 // Checkpoint 2 - dă có bi, ti?p t?c bám line 
....................                 ball_grabbed = TRUE; 
009DE:  BSF    1D.1
009E0:  CLRF   17
009E2:  BTFSC  FF2.7
009E4:  BSF    17.7
009E6:  BCF    FF2.7
....................                 sensors_led_action(FALSE);  // LED2 OFF - ch? nháy t?i station 
009E8:  CLRF   x64
009EA:  CALL   01E8
009EE:  BTFSC  17.7
009F0:  BSF    FF2.7
009F2:  CLRF   17
009F4:  BTFSC  FF2.7
009F6:  BSF    17.7
009F8:  BCF    FF2.7
....................                 fsm_transition(STATE_FOLLOW_LINE); 
009FA:  MOVLW  01
009FC:  MOVWF  x63
009FE:  RCALL  05A8
00A00:  BTFSC  17.7
00A02:  BSF    FF2.7
....................                 break; 
00A04:  BRA    0A58
....................                  
....................             case CP_BEFORE_END: 
....................                 // Checkpoint 3 - g?n END, dă có bi 
....................                 ball_grabbed = TRUE; 
00A06:  BSF    1D.1
00A08:  CLRF   17
00A0A:  BTFSC  FF2.7
00A0C:  BSF    17.7
00A0E:  BCF    FF2.7
....................                 sensors_led_action(FALSE);  // LED2 OFF - ch? nháy t?i station 
00A10:  CLRF   x64
00A12:  CALL   01E8
00A16:  BTFSC  17.7
00A18:  BSF    FF2.7
00A1A:  CLRF   17
00A1C:  BTFSC  FF2.7
00A1E:  BSF    17.7
00A20:  BCF    FF2.7
....................                 fsm_transition(STATE_FOLLOW_LINE); 
00A22:  MOVLW  01
00A24:  MOVWF  x63
00A26:  RCALL  05A8
00A28:  BTFSC  17.7
00A2A:  BSF    FF2.7
....................                 break; 
00A2C:  BRA    0A58
....................                  
....................             default: 
....................                 // M?c d?nh ch?y t? d?u 
....................                 current_checkpoint = CP_START; 
00A2E:  MOVLW  01
00A30:  MOVWF  1C
....................                 ball_grabbed = FALSE; 
00A32:  BCF    1D.1
00A34:  CLRF   17
00A36:  BTFSC  FF2.7
00A38:  BSF    17.7
00A3A:  BCF    FF2.7
....................                 sensors_led_action(FALSE); 
00A3C:  CLRF   x64
00A3E:  CALL   01E8
00A42:  BTFSC  17.7
00A44:  BSF    FF2.7
00A46:  CLRF   17
00A48:  BTFSC  FF2.7
00A4A:  BSF    17.7
00A4C:  BCF    FF2.7
....................                 fsm_transition(STATE_FOLLOW_LINE); 
00A4E:  MOVLW  01
00A50:  MOVWF  x63
00A52:  RCALL  05A8
00A54:  BTFSC  17.7
00A56:  BSF    FF2.7
....................                 break; 
....................         } 
....................     } 
00A58:  GOTO   14CE (RETURN)
.................... } 
.................... // ============================================================================ 
.................... // MAIN FUNCTION 
.................... // ============================================================================ 
.................... void main(void) { 
*
0142C:  CLRF   FF8
0142E:  BCF    FD0.7
01430:  BSF    07.7
01432:  CLRF   29
01434:  MOVLW  02
01436:  MOVWF  2A
01438:  MOVWF  2B
0143A:  BCF    1D.7
0143C:  CLRF   2D
0143E:  CLRF   2C
01440:  BCF    2E.0
01442:  BCF    2E.1
01444:  BCF    2E.2
01446:  CLRF   2F
01448:  CLRF   30
0144A:  CLRF   18
0144C:  CLRF   19
0144E:  CLRF   1A
01450:  CLRF   1B
01452:  MOVLW  01
01454:  MOVWF  1C
01456:  BCF    1D.0
01458:  BCF    1D.1
0145A:  CLRF   1E
0145C:  CLRF   31
0145E:  CLRF   32
01460:  CLRF   36
01462:  CLRF   35
01464:  CLRF   34
01466:  CLRF   33
01468:  CLRF   37
0146A:  CLRF   3B
0146C:  CLRF   3A
0146E:  CLRF   39
01470:  CLRF   38
01472:  CLRF   3D
01474:  CLRF   3C
01476:  CLRF   3F
01478:  CLRF   3E
0147A:  BCF    2E.3
0147C:  BCF    2E.4
0147E:  CLRF   22
01480:  CLRF   21
01482:  CLRF   20
01484:  CLRF   1F
01486:  CLRF   24
01488:  CLRF   23
0148A:  BCF    1D.2
0148C:  CLRF   25
0148E:  BCF    2E.5
01490:  BCF    1D.3
01492:  BCF    1D.4
01494:  BCF    1D.5
01496:  BCF    1D.6
01498:  CLRF   43
0149A:  CLRF   42
0149C:  CLRF   41
0149E:  CLRF   40
014A0:  BCF    2E.6
014A2:  MOVF   FC1,W
014A4:  ANDLW  C0
014A6:  IORLW  0F
014A8:  MOVWF  FC1
014AA:  CLRF   26
014AC:  CLRF   27
014AE:  CLRF   28
....................     // Initialize all systems 
....................     system_init(); 
014B0:  GOTO   0844
....................      
....................     // Start with system disabled, in IDLE state 
....................     system_enabled = FALSE; 
014B4:  BCF    1D.3
....................     led1_should_be_on = FALSE;  // LED1 ban d?u t?t 
014B6:  BCF    2E.5
....................     current_state = STATE_IDLE; 
014B8:  CLRF   18
014BA:  CLRF   17
014BC:  BTFSC  FF2.7
014BE:  BSF    17.7
014C0:  BCF    FF2.7
....................     state_idle_entry(); 
014C2:  CALL   045E
014C6:  BTFSC  17.7
014C8:  BSF    FF2.7
....................      
....................     // Main FSM dispatch loop 
....................     while (TRUE) { 
....................         // Handle checkpoint buttons first 
....................         handle_checkpoint_buttons(); 
014CA:  GOTO   08C4
....................          
....................         // Dispatch to current state's update function 
....................         switch (current_state) { 
014CE:  MOVF   18,W
014D0:  BZ    14F8
014D2:  XORLW  01
014D4:  BZ    14FE
014D6:  XORLW  03
014D8:  BZ    1504
014DA:  XORLW  01
014DC:  BZ    1508
014DE:  XORLW  07
014E0:  BZ    150C
014E2:  XORLW  01
014E4:  BZ    1510
014E6:  XORLW  03
014E8:  BZ    1514
014EA:  XORLW  01
014EC:  BZ    1518
014EE:  XORLW  0F
014F0:  BZ    151C
014F2:  XORLW  01
014F4:  BZ    1520
014F6:  BRA    1524
....................             case STATE_IDLE: 
....................                 state_idle_update(); 
014F8:  GOTO   0A5C
....................                 break; 
014FC:  BRA    1536
....................                  
....................             case STATE_FOLLOW_LINE: 
....................                 state_follow_line_update(); 
014FE:  GOTO   0C7A
....................                 break; 
01502:  BRA    1536
....................                  
....................             case STATE_STATION: 
....................                 state_station_update(); 
01504:  BRA    0E62
....................                 break; 
01506:  BRA    1536
....................                  
....................             case STATE_STATION_STOP: 
....................                 state_station_stop_update(); 
01508:  BRA    0EA8
....................                 break; 
0150A:  BRA    1536
....................                  
....................             case STATE_STATION_BACK: 
....................                 state_station_back_update(); 
0150C:  BRA    1078
....................                 break; 
0150E:  BRA    1536
....................                  
....................             case STATE_NAVIGATION: 
....................                 state_navigation_update(); 
01510:  BRA    10EC
....................                 break; 
01512:  BRA    1536
....................                  
....................             case STATE_END: 
....................                 state_end_update(); 
01514:  BRA    115C
....................                 break; 
01516:  BRA    1536
....................                  
....................             case STATE_END_REVERSE: 
....................                 state_end_reverse_update(); 
01518:  BRA    11E2
....................                 break; 
0151A:  BRA    1536
....................                  
....................             case STATE_ERROR: 
....................                 state_error_update(); 
0151C:  BRA    1246
....................                 break; 
0151E:  BRA    1536
....................                  
....................             case STATE_CHECKPOINT: 
....................                 state_checkpoint_update(); 
01520:  BRA    12E2
....................                 break; 
01522:  BRA    1536
01524:  CLRF   17
01526:  BTFSC  FF2.7
01528:  BSF    17.7
0152A:  BCF    FF2.7
....................                  
....................             default: 
....................                 // Invalid state - reset to IDLE 
....................                 fsm_transition(STATE_IDLE); 
0152C:  CLRF   x63
0152E:  CALL   05A8
01532:  BTFSC  17.7
01534:  BSF    FF2.7
....................                 break; 
01536:  CLRF   17
01538:  BTFSC  FF2.7
0153A:  BSF    17.7
0153C:  BCF    FF2.7
....................         } 
....................          
....................         // Small delay to prevent tight looping (optional) 
....................         delay_ms(10); 
0153E:  MOVLW  0A
01540:  MOVWF  x65
01542:  CALL   02A2
01546:  BTFSC  17.7
01548:  BSF    FF2.7
0154A:  BRA    14CA
....................     } 
.................... } 
0154C:  SLEEP 

Configuration Fuses:
   Word  1: C200   HS FCMEN IESO
   Word  2: 1E19   NOPUT NOBROWNOUT BORV21 NOWDT WDT32768
   Word  3: 8400   NOPBADEN LPT1OSC MCLR
   Word  4: 00B1   STVREN NOLVP NOXINST NODEBUG
   Word  5: C03F   NOPROTECT NOCPB NOCPD
   Word  6: E03F   NOWRT NOWRTC NOWRTB NOWRTD
   Word  7: 403F   NOEBTR NOEBTRB
