CCS PCH C Compiler, Version 5.015, 5967               02-Apr-26 16:41

               Filename:   D:\intern\code\test_motor.lst

               ROM used:   536 bytes (1%)
                           Largest free fragment is 64996
               RAM used:   27 (1%) at main() level
                           28 (1%) worst case
               Stack used: 2 locations (1 in main + 1 for interrupts)
               Stack size: 31

*
00000:  GOTO   0194
*
00008:  MOVWF  04
0000A:  MOVFF  FD8,05
0000E:  MOVFF  FE0,06
00012:  MOVLB  0
00014:  MOVFF  FE9,0C
00018:  MOVFF  FEA,07
0001C:  MOVFF  FE1,08
00020:  MOVFF  FE2,09
00024:  MOVFF  FD9,0A
00028:  MOVFF  FDA,0B
0002C:  MOVFF  FF3,12
00030:  MOVFF  FF4,13
00034:  MOVFF  FFA,14
00038:  MOVFF  FFB,15
0003C:  MOVFF  00,0E
00040:  MOVFF  01,0F
00044:  MOVFF  02,10
00048:  MOVFF  03,11
0004C:  BTFSS  F9D.1
0004E:  GOTO   0058
00052:  BTFSC  F9E.1
00054:  GOTO   009E
00058:  MOVFF  0E,00
0005C:  MOVFF  0F,01
00060:  MOVFF  10,02
00064:  MOVFF  11,03
00068:  MOVFF  0C,FE9
0006C:  MOVFF  07,FEA
00070:  BSF    07.7
00072:  MOVFF  08,FE1
00076:  MOVFF  09,FE2
0007A:  MOVFF  0A,FD9
0007E:  MOVFF  0B,FDA
00082:  MOVFF  12,FF3
00086:  MOVFF  13,FF4
0008A:  MOVFF  14,FFA
0008E:  MOVFF  15,FFB
00092:  MOVF   04,W
00094:  MOVFF  06,FE0
00098:  MOVFF  05,FD8
0009C:  RETFIE 0
....................  
.................... #include <18F2685.h> 
.................... //////////// Standard Header file for the PIC18F2685 device //////////////// 
.................... /////////////////////////////////////////////////////////////////////////// 
.................... ////        (C) Copyright 1996, 2013 Custom Computer Services          //// 
.................... //// This source code may only be used by licensed users of the CCS C  //// 
.................... //// compiler.  This source code may only be distributed to other      //// 
.................... //// licensed users of the CCS C compiler.  No other use, reproduction //// 
.................... //// or distribution is permitted without written permission.          //// 
.................... //// Derivative programs created using this software in object code    //// 
.................... //// form are not restricted in any way.                               //// 
.................... /////////////////////////////////////////////////////////////////////////// 
.................... #device PIC18F2685 
....................  
.................... #list 
....................  
.................... #fuses HS, NOWDT, NOPROTECT, NOLVP 
.................... #use delay(clock=20000000) 
*
00102:  CLRF   FEA
00104:  MOVLW  1B
00106:  MOVWF  FE9
00108:  MOVF   FEF,W
0010A:  BZ    0126
0010C:  MOVLW  06
0010E:  MOVWF  01
00110:  CLRF   00
00112:  DECFSZ 00,F
00114:  BRA    0112
00116:  DECFSZ 01,F
00118:  BRA    0110
0011A:  MOVLW  7B
0011C:  MOVWF  00
0011E:  DECFSZ 00,F
00120:  BRA    011E
00122:  DECFSZ FEF,F
00124:  BRA    010C
00126:  RETURN 0
....................  
.................... // Motor A 
.................... #define MOTOR_PWMA PIN_C2 
.................... #define MOTOR_AIN1 PIN_C0 
.................... #define MOTOR_AIN2 PIN_C3 
....................  
.................... // Motor B 
.................... #define MOTOR_PWMB PIN_C1 
.................... #define MOTOR_BIN1 PIN_C5 
.................... #define MOTOR_BIN2 PIN_C6 
....................  
.................... // Chung 
.................... #define MOTOR_STBY PIN_C4 
....................  
.................... volatile int8 pwm_duty_a = 0; 
.................... volatile int8 pwm_duty_b = 0; 
.................... volatile int8 pwm_counter = 0; 
....................  
.................... #INT_TIMER2 
.................... void timer2_isr(void) { 
....................     output_bit(MOTOR_PWMA, pwm_counter < pwm_duty_a); 
*
0009E:  MOVF   17,W
000A0:  SUBWF  19,W
000A2:  BNC   00A8
000A4:  BCF    F8B.2
000A6:  BRA    00AA
000A8:  BSF    F8B.2
000AA:  BCF    F94.2
....................     output_bit(MOTOR_PWMB, pwm_counter < pwm_duty_b); 
000AC:  MOVF   18,W
000AE:  SUBWF  19,W
000B0:  BNC   00B6
000B2:  BCF    F8B.1
000B4:  BRA    00B8
000B6:  BSF    F8B.1
000B8:  BCF    F94.1
....................     pwm_counter++; 
000BA:  INCF   19,F
....................     if (pwm_counter >= 100) { 
000BC:  MOVF   19,W
000BE:  SUBLW  63
000C0:  BC    00C4
....................         pwm_counter = 0; 
000C2:  CLRF   19
....................     } 
000C4:  BCF    F9E.1
000C6:  GOTO   0058
.................... } 
....................  
.................... void motor_init(void) { 
....................     setup_timer_2(T2_DIV_BY_4, 49, 1); 
000CA:  MOVLW  00
000CC:  IORLW  05
000CE:  MOVWF  FCA
000D0:  MOVLW  31
000D2:  MOVWF  FCB
....................     pwm_duty_a = 0; 
000D4:  CLRF   17
....................     pwm_duty_b = 0; 
000D6:  CLRF   18
....................     output_low(MOTOR_STBY); 
000D8:  BCF    F94.4
000DA:  BCF    F8B.4
....................     enable_interrupts(INT_TIMER2); 
000DC:  BSF    F9D.1
000DE:  GOTO   01B4 (RETURN)
.................... } 
....................  
.................... void motor_stop(void) { 
....................     output_low(MOTOR_STBY); 
*
00188:  BCF    F94.4
0018A:  BCF    F8B.4
....................     pwm_duty_a = 0; 
0018C:  CLRF   17
....................     pwm_duty_b = 0; 
0018E:  CLRF   18
00190:  GOTO   020A (RETURN)
.................... } 
....................  
.................... void motor_forward(int8 speed) { 
....................     output_high(MOTOR_STBY); 
*
000E2:  BCF    F94.4
000E4:  BSF    F8B.4
....................     output_high(MOTOR_AIN1); 
000E6:  BCF    F94.0
000E8:  BSF    F8B.0
....................     output_low(MOTOR_AIN2); 
000EA:  BCF    F94.3
000EC:  BCF    F8B.3
....................     output_high(MOTOR_BIN1); 
000EE:  BCF    F94.5
000F0:  BSF    F8B.5
....................     output_low(MOTOR_BIN2); 
000F2:  BCF    F94.6
000F4:  BCF    F8B.6
....................     pwm_duty_a = speed; 
000F6:  MOVFF  1A,17
....................     pwm_duty_b = speed; 
000FA:  MOVFF  1A,18
000FE:  GOTO   01BE (RETURN)
.................... } 
....................  
.................... void motor_backward(int8 speed) { 
....................     output_high(MOTOR_STBY); 
*
00128:  BCF    F94.4
0012A:  BSF    F8B.4
....................     output_low(MOTOR_AIN1); 
0012C:  BCF    F94.0
0012E:  BCF    F8B.0
....................     output_high(MOTOR_AIN2); 
00130:  BCF    F94.3
00132:  BSF    F8B.3
....................     output_low(MOTOR_BIN1); 
00134:  BCF    F94.5
00136:  BCF    F8B.5
....................     output_high(MOTOR_BIN2); 
00138:  BCF    F94.6
0013A:  BSF    F8B.6
....................     pwm_duty_a = speed; 
0013C:  MOVFF  1A,17
....................     pwm_duty_b = speed; 
00140:  MOVFF  1A,18
00144:  GOTO   01D2 (RETURN)
.................... } 
....................  
.................... void motor_turn_left(int8 speed) { 
....................     output_high(MOTOR_STBY); 
00148:  BCF    F94.4
0014A:  BSF    F8B.4
....................     output_low(MOTOR_AIN1); 
0014C:  BCF    F94.0
0014E:  BCF    F8B.0
....................     output_high(MOTOR_AIN2); 
00150:  BCF    F94.3
00152:  BSF    F8B.3
....................     output_high(MOTOR_BIN1); 
00154:  BCF    F94.5
00156:  BSF    F8B.5
....................     output_low(MOTOR_BIN2); 
00158:  BCF    F94.6
0015A:  BCF    F8B.6
....................     pwm_duty_a = speed; 
0015C:  MOVFF  1A,17
....................     pwm_duty_b = speed; 
00160:  MOVFF  1A,18
00164:  GOTO   01E6 (RETURN)
.................... } 
....................  
.................... void motor_turn_right(int8 speed) { 
....................     output_high(MOTOR_STBY); 
00168:  BCF    F94.4
0016A:  BSF    F8B.4
....................     output_high(MOTOR_AIN1); 
0016C:  BCF    F94.0
0016E:  BSF    F8B.0
....................     output_low(MOTOR_AIN2); 
00170:  BCF    F94.3
00172:  BCF    F8B.3
....................     output_low(MOTOR_BIN1); 
00174:  BCF    F94.5
00176:  BCF    F8B.5
....................     output_high(MOTOR_BIN2); 
00178:  BCF    F94.6
0017A:  BSF    F8B.6
....................     pwm_duty_a = speed; 
0017C:  MOVFF  1A,17
....................     pwm_duty_b = speed; 
00180:  MOVFF  1A,18
00184:  GOTO   01FA (RETURN)
.................... } 
....................  
.................... void main(void) { 
*
00194:  CLRF   FF8
00196:  BCF    FD0.7
00198:  BSF    07.7
0019A:  CLRF   17
0019C:  CLRF   18
0019E:  CLRF   19
001A0:  MOVF   FC1,W
001A2:  ANDLW  C0
001A4:  IORLW  0F
001A6:  MOVWF  FC1
....................     setup_adc(ADC_OFF); 
001A8:  BCF    FC2.0
....................     setup_adc_ports(NO_ANALOGS); 
001AA:  MOVF   FC1,W
001AC:  ANDLW  C0
001AE:  IORLW  0F
001B0:  MOVWF  FC1
....................      
....................     motor_init(); 
001B2:  BRA    00CA
....................     enable_interrupts(GLOBAL); 
001B4:  MOVLW  C0
001B6:  IORWF  FF2,F
....................      
....................     while(TRUE) { 
....................         motor_forward(80); 
001B8:  MOVLW  50
001BA:  MOVWF  1A
001BC:  BRA    00E2
....................         delay_ms(2000); 
001BE:  MOVLW  08
001C0:  MOVWF  1A
001C2:  MOVLW  FA
001C4:  MOVWF  1B
001C6:  RCALL  0102
001C8:  DECFSZ 1A,F
001CA:  BRA    01C2
....................          
....................         motor_backward(80); 
001CC:  MOVLW  50
001CE:  MOVWF  1A
001D0:  BRA    0128
....................         delay_ms(2000); 
001D2:  MOVLW  08
001D4:  MOVWF  1A
001D6:  MOVLW  FA
001D8:  MOVWF  1B
001DA:  RCALL  0102
001DC:  DECFSZ 1A,F
001DE:  BRA    01D6
....................          
....................         motor_turn_left(60); 
001E0:  MOVLW  3C
001E2:  MOVWF  1A
001E4:  BRA    0148
....................         delay_ms(2000); 
001E6:  MOVLW  08
001E8:  MOVWF  1A
001EA:  MOVLW  FA
001EC:  MOVWF  1B
001EE:  RCALL  0102
001F0:  DECFSZ 1A,F
001F2:  BRA    01EA
....................          
....................         motor_turn_right(60); 
001F4:  MOVLW  3C
001F6:  MOVWF  1A
001F8:  BRA    0168
....................         delay_ms(2000); 
001FA:  MOVLW  08
001FC:  MOVWF  1A
001FE:  MOVLW  FA
00200:  MOVWF  1B
00202:  RCALL  0102
00204:  DECFSZ 1A,F
00206:  BRA    01FE
....................          
....................         motor_stop(); 
00208:  BRA    0188
....................         delay_ms(2000); 
0020A:  MOVLW  08
0020C:  MOVWF  1A
0020E:  MOVLW  FA
00210:  MOVWF  1B
00212:  RCALL  0102
00214:  DECFSZ 1A,F
00216:  BRA    020E
00218:  BRA    01B8
....................     } 
.................... } 
....................  
0021A:  SLEEP 

Configuration Fuses:
   Word  1: C200   HS FCMEN IESO
   Word  2: 1E1E   PUT BROWNOUT BORV21 NOWDT WDT32768
   Word  3: 8600   PBADEN LPT1OSC MCLR
   Word  4: 00B1   STVREN NOLVP NOXINST NODEBUG
   Word  5: C03F   NOPROTECT NOCPB NOCPD
   Word  6: E03F   NOWRT NOWRTC NOWRTB NOWRTD
   Word  7: 403F   NOEBTR NOEBTRB
